Archive member included to satisfy reference by file (symbol)

c:/projects/ultra700/gcc/bin/../lib/gcc/arm-none-eabi/9.3.1/../../../../arm-none-eabi/lib\libc.a(lib_a-fflush.o)
                              CMakeFiles/payload.elf.dir/src/System/debug.c.obj (fflush)
c:/projects/ultra700/gcc/bin/../lib/gcc/arm-none-eabi/9.3.1/../../../../arm-none-eabi/lib\libc.a(lib_a-findfp.o)
                              c:/projects/ultra700/gcc/bin/../lib/gcc/arm-none-eabi/9.3.1/../../../../arm-none-eabi/lib\libc.a(lib_a-fflush.o) (__sinit)
c:/projects/ultra700/gcc/bin/../lib/gcc/arm-none-eabi/9.3.1/../../../../arm-none-eabi/lib\libc.a(lib_a-freer.o)
                              c:/projects/ultra700/gcc/bin/../lib/gcc/arm-none-eabi/9.3.1/../../../../arm-none-eabi/lib\libc.a(lib_a-fflush.o) (_free_r)
c:/projects/ultra700/gcc/bin/../lib/gcc/arm-none-eabi/9.3.1/../../../../arm-none-eabi/lib\libc.a(lib_a-fwalk.o)
                              c:/projects/ultra700/gcc/bin/../lib/gcc/arm-none-eabi/9.3.1/../../../../arm-none-eabi/lib\libc.a(lib_a-findfp.o) (_fwalk)
c:/projects/ultra700/gcc/bin/../lib/gcc/arm-none-eabi/9.3.1/../../../../arm-none-eabi/lib\libc.a(lib_a-impure.o)
                              c:/projects/ultra700/gcc/bin/../lib/gcc/arm-none-eabi/9.3.1/../../../../arm-none-eabi/lib\libc.a(lib_a-fflush.o) (_global_impure_ptr)
c:/projects/ultra700/gcc/bin/../lib/gcc/arm-none-eabi/9.3.1/../../../../arm-none-eabi/lib\libc.a(lib_a-lock.o)
                              c:/projects/ultra700/gcc/bin/../lib/gcc/arm-none-eabi/9.3.1/../../../../arm-none-eabi/lib\libc.a(lib_a-findfp.o) (__retarget_lock_init_recursive)
c:/projects/ultra700/gcc/bin/../lib/gcc/arm-none-eabi/9.3.1/../../../../arm-none-eabi/lib\libc.a(lib_a-mallocr.o)
                              c:/projects/ultra700/gcc/bin/../lib/gcc/arm-none-eabi/9.3.1/../../../../arm-none-eabi/lib\libc.a(lib_a-findfp.o) (_malloc_r)
c:/projects/ultra700/gcc/bin/../lib/gcc/arm-none-eabi/9.3.1/../../../../arm-none-eabi/lib\libc.a(lib_a-memcmp.o)
                              CMakeFiles/payload.elf.dir/src/Lib/MT6261/Drivers/lcdif.c.obj (memcmp)
c:/projects/ultra700/gcc/bin/../lib/gcc/arm-none-eabi/9.3.1/../../../../arm-none-eabi/lib\libc.a(lib_a-memcpy-stub.o)
                              CMakeFiles/payload.elf.dir/src/System/evmngr.c.obj (memcpy)
c:/projects/ultra700/gcc/bin/../lib/gcc/arm-none-eabi/9.3.1/../../../../arm-none-eabi/lib\libc.a(lib_a-memset.o)
                              CMakeFiles/payload.elf.dir/src/System/dlist.c.obj (memset)
c:/projects/ultra700/gcc/bin/../lib/gcc/arm-none-eabi/9.3.1/../../../../arm-none-eabi/lib\libc.a(lib_a-mlock.o)
                              c:/projects/ultra700/gcc/bin/../lib/gcc/arm-none-eabi/9.3.1/../../../../arm-none-eabi/lib\libc.a(lib_a-freer.o) (__malloc_lock)
c:/projects/ultra700/gcc/bin/../lib/gcc/arm-none-eabi/9.3.1/../../../../arm-none-eabi/lib\libc.a(lib_a-printf.o)
                              CMakeFiles/payload.elf.dir/src/System/debug.c.obj (printf)
c:/projects/ultra700/gcc/bin/../lib/gcc/arm-none-eabi/9.3.1/../../../../arm-none-eabi/lib\libc.a(lib_a-sbrkr.o)
                              c:/projects/ultra700/gcc/bin/../lib/gcc/arm-none-eabi/9.3.1/../../../../arm-none-eabi/lib\libc.a(lib_a-freer.o) (_sbrk_r)
c:/projects/ultra700/gcc/bin/../lib/gcc/arm-none-eabi/9.3.1/../../../../arm-none-eabi/lib\libc.a(lib_a-stdio.o)
                              c:/projects/ultra700/gcc/bin/../lib/gcc/arm-none-eabi/9.3.1/../../../../arm-none-eabi/lib\libc.a(lib_a-findfp.o) (__sread)
c:/projects/ultra700/gcc/bin/../lib/gcc/arm-none-eabi/9.3.1/../../../../arm-none-eabi/lib\libc.a(lib_a-strlen-stub.o)
                              CMakeFiles/payload.elf.dir/src/GUI/guiobject.c.obj (strlen)
c:/projects/ultra700/gcc/bin/../lib/gcc/arm-none-eabi/9.3.1/../../../../arm-none-eabi/lib\libc.a(lib_a-vfprintf.o)
                              c:/projects/ultra700/gcc/bin/../lib/gcc/arm-none-eabi/9.3.1/../../../../arm-none-eabi/lib\libc.a(lib_a-printf.o) (_vfprintf_r)
c:/projects/ultra700/gcc/bin/../lib/gcc/arm-none-eabi/9.3.1/../../../../arm-none-eabi/lib\libc.a(lib_a-vsnprintf.o)
                              CMakeFiles/payload.elf.dir/src/Application/appinit.c.obj (vsnprintf)
c:/projects/ultra700/gcc/bin/../lib/gcc/arm-none-eabi/9.3.1/../../../../arm-none-eabi/lib\libc.a(lib_a-writer.o)
                              c:/projects/ultra700/gcc/bin/../lib/gcc/arm-none-eabi/9.3.1/../../../../arm-none-eabi/lib\libc.a(lib_a-stdio.o) (_write_r)
c:/projects/ultra700/gcc/bin/../lib/gcc/arm-none-eabi/9.3.1/../../../../arm-none-eabi/lib\libc.a(lib_a-wsetup.o)
                              c:/projects/ultra700/gcc/bin/../lib/gcc/arm-none-eabi/9.3.1/../../../../arm-none-eabi/lib\libc.a(lib_a-vfprintf.o) (__swsetup_r)
c:/projects/ultra700/gcc/bin/../lib/gcc/arm-none-eabi/9.3.1/../../../../arm-none-eabi/lib\libc.a(lib_a-closer.o)
                              c:/projects/ultra700/gcc/bin/../lib/gcc/arm-none-eabi/9.3.1/../../../../arm-none-eabi/lib\libc.a(lib_a-stdio.o) (_close_r)
c:/projects/ultra700/gcc/bin/../lib/gcc/arm-none-eabi/9.3.1/../../../../arm-none-eabi/lib\libc.a(lib_a-dtoa.o)
                              c:/projects/ultra700/gcc/bin/../lib/gcc/arm-none-eabi/9.3.1/../../../../arm-none-eabi/lib\libc.a(lib_a-vfprintf.o) (_dtoa_r)
c:/projects/ultra700/gcc/bin/../lib/gcc/arm-none-eabi/9.3.1/../../../../arm-none-eabi/lib\libc.a(lib_a-fclose.o)
                              c:/projects/ultra700/gcc/bin/../lib/gcc/arm-none-eabi/9.3.1/../../../../arm-none-eabi/lib\libc.a(lib_a-findfp.o) (_fclose_r)
c:/projects/ultra700/gcc/bin/../lib/gcc/arm-none-eabi/9.3.1/../../../../arm-none-eabi/lib\libc.a(lib_a-localeconv.o)
                              c:/projects/ultra700/gcc/bin/../lib/gcc/arm-none-eabi/9.3.1/../../../../arm-none-eabi/lib\libc.a(lib_a-vfprintf.o) (_localeconv_r)
c:/projects/ultra700/gcc/bin/../lib/gcc/arm-none-eabi/9.3.1/../../../../arm-none-eabi/lib\libc.a(lib_a-lseekr.o)
                              c:/projects/ultra700/gcc/bin/../lib/gcc/arm-none-eabi/9.3.1/../../../../arm-none-eabi/lib\libc.a(lib_a-stdio.o) (_lseek_r)
c:/projects/ultra700/gcc/bin/../lib/gcc/arm-none-eabi/9.3.1/../../../../arm-none-eabi/lib\libc.a(lib_a-makebuf.o)
                              c:/projects/ultra700/gcc/bin/../lib/gcc/arm-none-eabi/9.3.1/../../../../arm-none-eabi/lib\libc.a(lib_a-wsetup.o) (__smakebuf_r)
c:/projects/ultra700/gcc/bin/../lib/gcc/arm-none-eabi/9.3.1/../../../../arm-none-eabi/lib\libc.a(lib_a-memchr-stub.o)
                              c:/projects/ultra700/gcc/bin/../lib/gcc/arm-none-eabi/9.3.1/../../../../arm-none-eabi/lib\libc.a(lib_a-vfprintf.o) (memchr)
c:/projects/ultra700/gcc/bin/../lib/gcc/arm-none-eabi/9.3.1/../../../../arm-none-eabi/lib\libc.a(lib_a-mprec.o)
                              c:/projects/ultra700/gcc/bin/../lib/gcc/arm-none-eabi/9.3.1/../../../../arm-none-eabi/lib\libc.a(lib_a-dtoa.o) (_Balloc)
c:/projects/ultra700/gcc/bin/../lib/gcc/arm-none-eabi/9.3.1/../../../../arm-none-eabi/lib\libc.a(lib_a-readr.o)
                              c:/projects/ultra700/gcc/bin/../lib/gcc/arm-none-eabi/9.3.1/../../../../arm-none-eabi/lib\libc.a(lib_a-stdio.o) (_read_r)
c:/projects/ultra700/gcc/bin/../lib/gcc/arm-none-eabi/9.3.1/../../../../arm-none-eabi/lib\libc.a(lib_a-reent.o)
                              c:/projects/ultra700/gcc/bin/../lib/gcc/arm-none-eabi/9.3.1/../../../../arm-none-eabi/lib\libc.a(lib_a-sbrkr.o) (errno)
c:/projects/ultra700/gcc/bin/../lib/gcc/arm-none-eabi/9.3.1/../../../../arm-none-eabi/lib\libc.a(lib_a-s_frexp.o)
                              c:/projects/ultra700/gcc/bin/../lib/gcc/arm-none-eabi/9.3.1/../../../../arm-none-eabi/lib\libc.a(lib_a-vfprintf.o) (frexp)
c:/projects/ultra700/gcc/bin/../lib/gcc/arm-none-eabi/9.3.1/../../../../arm-none-eabi/lib\libc.a(lib_a-strncpy.o)
                              c:/projects/ultra700/gcc/bin/../lib/gcc/arm-none-eabi/9.3.1/../../../../arm-none-eabi/lib\libc.a(lib_a-vfprintf.o) (strncpy)
c:/projects/ultra700/gcc/bin/../lib/gcc/arm-none-eabi/9.3.1/../../../../arm-none-eabi/lib\libc.a(lib_a-svfprintf.o)
                              c:/projects/ultra700/gcc/bin/../lib/gcc/arm-none-eabi/9.3.1/../../../../arm-none-eabi/lib\libc.a(lib_a-vsnprintf.o) (_svfprintf_r)
c:/projects/ultra700/gcc/bin/../lib/gcc/arm-none-eabi/9.3.1/../../../../arm-none-eabi/lib\libc.a(lib_a-vfiprintf.o)
                              c:/projects/ultra700/gcc/bin/../lib/gcc/arm-none-eabi/9.3.1/../../../../arm-none-eabi/lib\libc.a(lib_a-vfprintf.o) (__sprint_r)
c:/projects/ultra700/gcc/bin/../lib/gcc/arm-none-eabi/9.3.1/../../../../arm-none-eabi/lib\libc.a(lib_a-assert.o)
                              c:/projects/ultra700/gcc/bin/../lib/gcc/arm-none-eabi/9.3.1/../../../../arm-none-eabi/lib\libc.a(lib_a-dtoa.o) (__assert_func)
c:/projects/ultra700/gcc/bin/../lib/gcc/arm-none-eabi/9.3.1/../../../../arm-none-eabi/lib\libc.a(lib_a-callocr.o)
                              c:/projects/ultra700/gcc/bin/../lib/gcc/arm-none-eabi/9.3.1/../../../../arm-none-eabi/lib\libc.a(lib_a-mprec.o) (_calloc_r)
c:/projects/ultra700/gcc/bin/../lib/gcc/arm-none-eabi/9.3.1/../../../../arm-none-eabi/lib\libc.a(lib_a-fiprintf.o)
                              c:/projects/ultra700/gcc/bin/../lib/gcc/arm-none-eabi/9.3.1/../../../../arm-none-eabi/lib\libc.a(lib_a-assert.o) (fiprintf)
c:/projects/ultra700/gcc/bin/../lib/gcc/arm-none-eabi/9.3.1/../../../../arm-none-eabi/lib\libc.a(lib_a-fputwc.o)
                              c:/projects/ultra700/gcc/bin/../lib/gcc/arm-none-eabi/9.3.1/../../../../arm-none-eabi/lib\libc.a(lib_a-vfiprintf.o) (_fputwc_r)
c:/projects/ultra700/gcc/bin/../lib/gcc/arm-none-eabi/9.3.1/../../../../arm-none-eabi/lib\libc.a(lib_a-fstatr.o)
                              c:/projects/ultra700/gcc/bin/../lib/gcc/arm-none-eabi/9.3.1/../../../../arm-none-eabi/lib\libc.a(lib_a-makebuf.o) (_fstat_r)
c:/projects/ultra700/gcc/bin/../lib/gcc/arm-none-eabi/9.3.1/../../../../arm-none-eabi/lib\libc.a(lib_a-fvwrite.o)
                              c:/projects/ultra700/gcc/bin/../lib/gcc/arm-none-eabi/9.3.1/../../../../arm-none-eabi/lib\libc.a(lib_a-vfiprintf.o) (__sfvwrite_r)
c:/projects/ultra700/gcc/bin/../lib/gcc/arm-none-eabi/9.3.1/../../../../arm-none-eabi/lib\libc.a(lib_a-isattyr.o)
                              c:/projects/ultra700/gcc/bin/../lib/gcc/arm-none-eabi/9.3.1/../../../../arm-none-eabi/lib\libc.a(lib_a-makebuf.o) (_isatty_r)
c:/projects/ultra700/gcc/bin/../lib/gcc/arm-none-eabi/9.3.1/../../../../arm-none-eabi/lib\libc.a(lib_a-locale.o)
                              c:/projects/ultra700/gcc/bin/../lib/gcc/arm-none-eabi/9.3.1/../../../../arm-none-eabi/lib\libc.a(lib_a-fputwc.o) (__locale_mb_cur_max)
c:/projects/ultra700/gcc/bin/../lib/gcc/arm-none-eabi/9.3.1/../../../../arm-none-eabi/lib\libc.a(lib_a-mbtowc_r.o)
                              c:/projects/ultra700/gcc/bin/../lib/gcc/arm-none-eabi/9.3.1/../../../../arm-none-eabi/lib\libc.a(lib_a-locale.o) (__ascii_mbtowc)
c:/projects/ultra700/gcc/bin/../lib/gcc/arm-none-eabi/9.3.1/../../../../arm-none-eabi/lib\libc.a(lib_a-memmove.o)
                              c:/projects/ultra700/gcc/bin/../lib/gcc/arm-none-eabi/9.3.1/../../../../arm-none-eabi/lib\libc.a(lib_a-fvwrite.o) (memmove)
c:/projects/ultra700/gcc/bin/../lib/gcc/arm-none-eabi/9.3.1/../../../../arm-none-eabi/lib\libc.a(lib_a-reallocr.o)
                              c:/projects/ultra700/gcc/bin/../lib/gcc/arm-none-eabi/9.3.1/../../../../arm-none-eabi/lib\libc.a(lib_a-fvwrite.o) (_realloc_r)
c:/projects/ultra700/gcc/bin/../lib/gcc/arm-none-eabi/9.3.1/../../../../arm-none-eabi/lib\libc.a(lib_a-strcmp.o)
                              c:/projects/ultra700/gcc/bin/../lib/gcc/arm-none-eabi/9.3.1/../../../../arm-none-eabi/lib\libc.a(lib_a-locale.o) (strcmp)
c:/projects/ultra700/gcc/bin/../lib/gcc/arm-none-eabi/9.3.1/../../../../arm-none-eabi/lib\libc.a(lib_a-svfiprintf.o)
                              c:/projects/ultra700/gcc/bin/../lib/gcc/arm-none-eabi/9.3.1/../../../../arm-none-eabi/lib\libc.a(lib_a-svfprintf.o) (__ssprint_r)
c:/projects/ultra700/gcc/bin/../lib/gcc/arm-none-eabi/9.3.1/../../../../arm-none-eabi/lib\libc.a(lib_a-wbuf.o)
                              c:/projects/ultra700/gcc/bin/../lib/gcc/arm-none-eabi/9.3.1/../../../../arm-none-eabi/lib\libc.a(lib_a-fputwc.o) (__swbuf_r)
c:/projects/ultra700/gcc/bin/../lib/gcc/arm-none-eabi/9.3.1/../../../../arm-none-eabi/lib\libc.a(lib_a-wcrtomb.o)
                              c:/projects/ultra700/gcc/bin/../lib/gcc/arm-none-eabi/9.3.1/../../../../arm-none-eabi/lib\libc.a(lib_a-fputwc.o) (_wcrtomb_r)
c:/projects/ultra700/gcc/bin/../lib/gcc/arm-none-eabi/9.3.1/../../../../arm-none-eabi/lib\libc.a(lib_a-wctomb_r.o)
                              c:/projects/ultra700/gcc/bin/../lib/gcc/arm-none-eabi/9.3.1/../../../../arm-none-eabi/lib\libc.a(lib_a-locale.o) (__ascii_wctomb)
c:/projects/ultra700/gcc/bin/../lib/gcc/arm-none-eabi/9.3.1/../../../../arm-none-eabi/lib\libc.a(lib_a-abort.o)
                              c:/projects/ultra700/gcc/bin/../lib/gcc/arm-none-eabi/9.3.1/../../../../arm-none-eabi/lib\libc.a(lib_a-assert.o) (abort)
c:/projects/ultra700/gcc/bin/../lib/gcc/arm-none-eabi/9.3.1/../../../../arm-none-eabi/lib\libc.a(lib_a-ctype_.o)
                              c:/projects/ultra700/gcc/bin/../lib/gcc/arm-none-eabi/9.3.1/../../../../arm-none-eabi/lib\libc.a(lib_a-locale.o) (_ctype_)
c:/projects/ultra700/gcc/bin/../lib/gcc/arm-none-eabi/9.3.1/../../../../arm-none-eabi/lib\libc.a(lib_a-signal.o)
                              c:/projects/ultra700/gcc/bin/../lib/gcc/arm-none-eabi/9.3.1/../../../../arm-none-eabi/lib\libc.a(lib_a-abort.o) (raise)
c:/projects/ultra700/gcc/bin/../lib/gcc/arm-none-eabi/9.3.1/../../../../arm-none-eabi/lib\libc.a(lib_a-signalr.o)
                              c:/projects/ultra700/gcc/bin/../lib/gcc/arm-none-eabi/9.3.1/../../../../arm-none-eabi/lib\libc.a(lib_a-signal.o) (_kill_r)
c:/projects/ultra700/gcc/bin/../lib/gcc/arm-none-eabi/9.3.1\libgcc.a(_arm_muldf3.o)
                              c:/projects/ultra700/gcc/bin/../lib/gcc/arm-none-eabi/9.3.1/../../../../arm-none-eabi/lib\libc.a(lib_a-vfprintf.o) (__aeabi_dmul)
c:/projects/ultra700/gcc/bin/../lib/gcc/arm-none-eabi/9.3.1\libgcc.a(_udivsi3.o)
                              CMakeFiles/payload.elf.dir/src/System/sf.c.obj (__aeabi_uidiv)
c:/projects/ultra700/gcc/bin/../lib/gcc/arm-none-eabi/9.3.1\libgcc.a(_divsi3.o)
                              CMakeFiles/payload.elf.dir/src/Lib/MT6261/Drivers/gpt.c.obj (__aeabi_idiv)
c:/projects/ultra700/gcc/bin/../lib/gcc/arm-none-eabi/9.3.1\libgcc.a(_dvmd_tls.o)
                              c:/projects/ultra700/gcc/bin/../lib/gcc/arm-none-eabi/9.3.1\libgcc.a(_udivsi3.o) (__aeabi_idiv0)
c:/projects/ultra700/gcc/bin/../lib/gcc/arm-none-eabi/9.3.1\libgcc.a(_arm_addsubdf3.o)
                              c:/projects/ultra700/gcc/bin/../lib/gcc/arm-none-eabi/9.3.1/../../../../arm-none-eabi/lib\libc.a(lib_a-vfprintf.o) (__aeabi_dsub)
c:/projects/ultra700/gcc/bin/../lib/gcc/arm-none-eabi/9.3.1\libgcc.a(_arm_muldivdf3.o)
                              c:/projects/ultra700/gcc/bin/../lib/gcc/arm-none-eabi/9.3.1/../../../../arm-none-eabi/lib\libc.a(lib_a-dtoa.o) (__aeabi_ddiv)
c:/projects/ultra700/gcc/bin/../lib/gcc/arm-none-eabi/9.3.1\libgcc.a(_arm_cmpdf2.o)
                              c:/projects/ultra700/gcc/bin/../lib/gcc/arm-none-eabi/9.3.1/../../../../arm-none-eabi/lib\libc.a(lib_a-vfprintf.o) (__aeabi_dcmpeq)
c:/projects/ultra700/gcc/bin/../lib/gcc/arm-none-eabi/9.3.1\libgcc.a(_arm_unorddf2.o)
                              c:/projects/ultra700/gcc/bin/../lib/gcc/arm-none-eabi/9.3.1/../../../../arm-none-eabi/lib\libc.a(lib_a-vfprintf.o) (__aeabi_dcmpun)
c:/projects/ultra700/gcc/bin/../lib/gcc/arm-none-eabi/9.3.1\libgcc.a(_arm_fixdfsi.o)
                              c:/projects/ultra700/gcc/bin/../lib/gcc/arm-none-eabi/9.3.1/../../../../arm-none-eabi/lib\libc.a(lib_a-vfprintf.o) (__aeabi_d2iz)
c:/projects/ultra700/gcc/bin/../lib/gcc/arm-none-eabi/9.3.1\libgcc.a(_aeabi_uldivmod.o)
                              CMakeFiles/payload.elf.dir/src/Application/audio_note.c.obj (__aeabi_uldivmod)
c:/projects/ultra700/gcc/bin/../lib/gcc/arm-none-eabi/9.3.1\libgcc.a(_udivmoddi4.o)
                              c:/projects/ultra700/gcc/bin/../lib/gcc/arm-none-eabi/9.3.1\libgcc.a(_aeabi_uldivmod.o) (__udivmoddi4)
c:/projects/ultra700/gcc/bin/../lib/gcc/arm-none-eabi/9.3.1\libgcc.a(_clzdi2.o)
                              c:/projects/ultra700/gcc/bin/../lib/gcc/arm-none-eabi/9.3.1\libgcc.a(_udivmoddi4.o) (__clzdi2)
c:/projects/ultra700/gcc/bin/../lib/gcc/arm-none-eabi/9.3.1\libgcc.a(_clzsi2.o)
                              c:/projects/ultra700/gcc/bin/../lib/gcc/arm-none-eabi/9.3.1\libgcc.a(_clzdi2.o) (__clzsi2)
c:/projects/ultra700/gcc/bin/../lib/gcc/arm-none-eabi/9.3.1/../../../../arm-none-eabi/lib\libnosys.a(close.o)
                              c:/projects/ultra700/gcc/bin/../lib/gcc/arm-none-eabi/9.3.1/../../../../arm-none-eabi/lib\libc.a(lib_a-closer.o) (_close)
c:/projects/ultra700/gcc/bin/../lib/gcc/arm-none-eabi/9.3.1/../../../../arm-none-eabi/lib\libnosys.a(fstat.o)
                              c:/projects/ultra700/gcc/bin/../lib/gcc/arm-none-eabi/9.3.1/../../../../arm-none-eabi/lib\libc.a(lib_a-fstatr.o) (_fstat)
c:/projects/ultra700/gcc/bin/../lib/gcc/arm-none-eabi/9.3.1/../../../../arm-none-eabi/lib\libnosys.a(getpid.o)
                              c:/projects/ultra700/gcc/bin/../lib/gcc/arm-none-eabi/9.3.1/../../../../arm-none-eabi/lib\libc.a(lib_a-signalr.o) (_getpid)
c:/projects/ultra700/gcc/bin/../lib/gcc/arm-none-eabi/9.3.1/../../../../arm-none-eabi/lib\libnosys.a(isatty.o)
                              c:/projects/ultra700/gcc/bin/../lib/gcc/arm-none-eabi/9.3.1/../../../../arm-none-eabi/lib\libc.a(lib_a-isattyr.o) (_isatty)
c:/projects/ultra700/gcc/bin/../lib/gcc/arm-none-eabi/9.3.1/../../../../arm-none-eabi/lib\libnosys.a(kill.o)
                              c:/projects/ultra700/gcc/bin/../lib/gcc/arm-none-eabi/9.3.1/../../../../arm-none-eabi/lib\libc.a(lib_a-signalr.o) (_kill)
c:/projects/ultra700/gcc/bin/../lib/gcc/arm-none-eabi/9.3.1/../../../../arm-none-eabi/lib\libnosys.a(lseek.o)
                              c:/projects/ultra700/gcc/bin/../lib/gcc/arm-none-eabi/9.3.1/../../../../arm-none-eabi/lib\libc.a(lib_a-lseekr.o) (_lseek)
c:/projects/ultra700/gcc/bin/../lib/gcc/arm-none-eabi/9.3.1/../../../../arm-none-eabi/lib\libnosys.a(read.o)
                              c:/projects/ultra700/gcc/bin/../lib/gcc/arm-none-eabi/9.3.1/../../../../arm-none-eabi/lib\libc.a(lib_a-readr.o) (_read)
c:/projects/ultra700/gcc/bin/../lib/gcc/arm-none-eabi/9.3.1/../../../../arm-none-eabi/lib\libnosys.a(sbrk.o)
                              c:/projects/ultra700/gcc/bin/../lib/gcc/arm-none-eabi/9.3.1/../../../../arm-none-eabi/lib\libc.a(lib_a-sbrkr.o) (_sbrk)
c:/projects/ultra700/gcc/bin/../lib/gcc/arm-none-eabi/9.3.1/../../../../arm-none-eabi/lib\libnosys.a(_exit.o)
                              c:/projects/ultra700/gcc/bin/../lib/gcc/arm-none-eabi/9.3.1/../../../../arm-none-eabi/lib\libc.a(lib_a-abort.o) (_exit)
C:/Projects/ultra700/src/GUI/Resource/fontlib.a(courier20h.o)
                              CMakeFiles/payload.elf.dir/src/Application/appinit.c.obj (fontCourier20h)

Allocating common symbols
Common symbol       size              file

FlashCapacity       0x4               CMakeFiles/payload.elf.dir/src/System/sf.c.obj
__lock___atexit_recursive_mutex
                    0x1               c:/projects/ultra700/gcc/bin/../lib/gcc/arm-none-eabi/9.3.1/../../../../arm-none-eabi/lib\libc.a(lib_a-lock.o)
TimersList          0x4               CMakeFiles/payload.elf.dir/src/System/lrtimer.c.obj
__lock___arc4random_mutex
                    0x1               c:/projects/ultra700/gcc/bin/../lib/gcc/arm-none-eabi/9.3.1/../../../../arm-none-eabi/lib\libc.a(lib_a-lock.o)
errno               0x4               c:/projects/ultra700/gcc/bin/../lib/gcc/arm-none-eabi/9.3.1/../../../../arm-none-eabi/lib\libc.a(lib_a-reent.o)
FT6326_PenCoordinates
                    0x8               CMakeFiles/payload.elf.dir/src/Application/Drivers/ft6236.c.obj
__lock___env_recursive_mutex
                    0x1               c:/projects/ultra700/gcc/bin/../lib/gcc/arm-none-eabi/9.3.1/../../../../arm-none-eabi/lib\libc.a(lib_a-lock.o)
__lock___sinit_recursive_mutex
                    0x1               c:/projects/ultra700/gcc/bin/../lib/gcc/arm-none-eabi/9.3.1/../../../../arm-none-eabi/lib\libc.a(lib_a-lock.o)
LCDIFQueue          0x4               CMakeFiles/payload.elf.dir/src/Lib/MT6261/Drivers/lcdif.c.obj
__lock___malloc_recursive_mutex
                    0x1               c:/projects/ultra700/gcc/bin/../lib/gcc/arm-none-eabi/9.3.1/../../../../arm-none-eabi/lib\libc.a(lib_a-lock.o)
LCDScreen           0x88              CMakeFiles/payload.elf.dir/src/Lib/MT6261/Drivers/lcdif.c.obj
sd_ctx              0x78              CMakeFiles/payload.elf.dir/src/Lib/MT6261/Drivers/msdc.c.obj
BLState             0x8               CMakeFiles/payload.elf.dir/src/Application/Drivers/backlight.c.obj
SFI_DeviceCmdAddrWrite
                    0x4               CMakeFiles/payload.elf.dir/src/System/sf.c.obj
EPState             0xa8              CMakeFiles/payload.elf.dir/src/Lib/MT6261/Drivers/usb.c.obj
USB_OnDeviceActive  0x4               CMakeFiles/payload.elf.dir/src/Lib/MT6261/Drivers/usb.c.obj
GUILocked           0x1               CMakeFiles/payload.elf.dir/src/GUI/gui.c.obj
FlashConfig         0x4               CMakeFiles/payload.elf.dir/src/System/sf.c.obj
__lock___at_quick_exit_mutex
                    0x1               c:/projects/ultra700/gcc/bin/../lib/gcc/arm-none-eabi/9.3.1/../../../../arm-none-eabi/lib\libc.a(lib_a-lock.o)
BLReduceTimer       0x4               CMakeFiles/payload.elf.dir/src/Application/Drivers/backlight.c.obj
FT6236_PenPressed   0x2               CMakeFiles/payload.elf.dir/src/Application/Drivers/ft6236.c.obj
__lock___dd_hash_mutex
                    0x1               c:/projects/ultra700/gcc/bin/../lib/gcc/arm-none-eabi/9.3.1/../../../../arm-none-eabi/lib\libc.a(lib_a-lock.o)
__lock___tz_mutex   0x1               c:/projects/ultra700/gcc/bin/../lib/gcc/arm-none-eabi/9.3.1/../../../../arm-none-eabi/lib\libc.a(lib_a-lock.o)
GUILayer            0x10              CMakeFiles/payload.elf.dir/src/GUI/guiwin.c.obj
__lock___sfp_recursive_mutex
                    0x1               c:/projects/ultra700/gcc/bin/../lib/gcc/arm-none-eabi/9.3.1/../../../../arm-none-eabi/lib\libc.a(lib_a-lock.o)

Discarded input sections

 .bss           0x00000000        0x0 CMakeFiles/payload.elf.dir/src/startup_MT6261x.S.obj
 .text          0x00000000        0x0 CMakeFiles/payload.elf.dir/src/System/DZ09.c.obj
 .bss           0x00000000        0x0 CMakeFiles/payload.elf.dir/src/System/DZ09.c.obj
 .text          0x00000000        0x0 CMakeFiles/payload.elf.dir/src/Lib/appheader.c.obj
 .bss           0x00000000        0x0 CMakeFiles/payload.elf.dir/src/Lib/appheader.c.obj
 .bss           0x00000000        0x0 CMakeFiles/payload.elf.dir/src/System/asmutils.s.obj
 .bss           0x00000000        0x0 CMakeFiles/payload.elf.dir/src/System/exchandlers.s.obj
 .text          0x00000000        0x0 CMakeFiles/payload.elf.dir/src/System/crc.c.obj
 .bss           0x00000000        0x0 CMakeFiles/payload.elf.dir/src/System/crc.c.obj
 .text.AddByteToCRC16
                0x00000000       0xdc CMakeFiles/payload.elf.dir/src/System/crc.c.obj
 .text.CalculateCRC16
                0x00000000       0x78 CMakeFiles/payload.elf.dir/src/System/crc.c.obj
 .rodata.CRCTable.7280
                0x00000000       0x20 CMakeFiles/payload.elf.dir/src/System/crc.c.obj
 .text          0x00000000        0x0 CMakeFiles/payload.elf.dir/src/System/debug.c.obj
 .bss           0x00000000        0x0 CMakeFiles/payload.elf.dir/src/System/debug.c.obj
 .rodata        0x00000000       0x1a CMakeFiles/payload.elf.dir/src/System/debug.c.obj
 .text.DBG_DumpMem32
                0x00000000       0xfc CMakeFiles/payload.elf.dir/src/System/debug.c.obj
 .text.DBG_DumpMem16
                0x00000000       0xfc CMakeFiles/payload.elf.dir/src/System/debug.c.obj
 .text          0x00000000        0x0 CMakeFiles/payload.elf.dir/src/System/dlist.c.obj
 .bss           0x00000000        0x0 CMakeFiles/payload.elf.dir/src/System/dlist.c.obj
 .text.DL_FindItemByIndex
                0x00000000       0x44 CMakeFiles/payload.elf.dir/src/System/dlist.c.obj
 .text.DL_AddItem
                0x00000000       0xf4 CMakeFiles/payload.elf.dir/src/System/dlist.c.obj
 .text.DL_AddItemAtIndex
                0x00000000      0x12c CMakeFiles/payload.elf.dir/src/System/dlist.c.obj
 .text.DL_InsertItemBefore
                0x00000000      0x100 CMakeFiles/payload.elf.dir/src/System/dlist.c.obj
 .text.DL_InsertItemAfter
                0x00000000      0x100 CMakeFiles/payload.elf.dir/src/System/dlist.c.obj
 .text.DL_InsertItemAfterPtr
                0x00000000       0xe4 CMakeFiles/payload.elf.dir/src/System/dlist.c.obj
 .text.DL_DeleteItemByData
                0x00000000       0xf0 CMakeFiles/payload.elf.dir/src/System/dlist.c.obj
 .text.DL_DeleteItemByIndex
                0x00000000       0xec CMakeFiles/payload.elf.dir/src/System/dlist.c.obj
 .text.DL_DeleteFirstItem
                0x00000000       0xc0 CMakeFiles/payload.elf.dir/src/System/dlist.c.obj
 .text.DL_ReplaceItemData
                0x00000000       0x88 CMakeFiles/payload.elf.dir/src/System/dlist.c.obj
 .text          0x00000000        0x0 CMakeFiles/payload.elf.dir/src/System/evmngr.c.obj
 .bss           0x00000000        0x0 CMakeFiles/payload.elf.dir/src/System/evmngr.c.obj
 .text          0x00000000        0x0 CMakeFiles/payload.elf.dir/src/System/fscache.c.obj
 .bss           0x00000000        0x0 CMakeFiles/payload.elf.dir/src/System/fscache.c.obj
 .text.FSC_FindBlock
                0x00000000       0x70 CMakeFiles/payload.elf.dir/src/System/fscache.c.obj
 .text.FSC_Create
                0x00000000       0x9c CMakeFiles/payload.elf.dir/src/System/fscache.c.obj
 .text.FSC_Destroy
                0x00000000       0x78 CMakeFiles/payload.elf.dir/src/System/fscache.c.obj
 .text.FSC_Invalidate
                0x00000000       0xe4 CMakeFiles/payload.elf.dir/src/System/fscache.c.obj
 .text.FSC_StoreDataBlock
                0x00000000      0x178 CMakeFiles/payload.elf.dir/src/System/fscache.c.obj
 .text.FSC_GetDataBlock
                0x00000000       0x58 CMakeFiles/payload.elf.dir/src/System/fscache.c.obj
 .text          0x00000000        0x0 CMakeFiles/payload.elf.dir/src/System/init.c.obj
 .bss           0x00000000        0x0 CMakeFiles/payload.elf.dir/src/System/init.c.obj
 .text          0x00000000        0x0 CMakeFiles/payload.elf.dir/src/System/lrtimer.c.obj
 .bss           0x00000000        0x0 CMakeFiles/payload.elf.dir/src/System/lrtimer.c.obj
 .text.LRT_SetMode
                0x00000000       0xd4 CMakeFiles/payload.elf.dir/src/System/lrtimer.c.obj
 .text          0x00000000        0x0 CMakeFiles/payload.elf.dir/src/System/memory.c.obj
 .bss           0x00000000        0x0 CMakeFiles/payload.elf.dir/src/System/memory.c.obj
 .text.realloc  0x00000000       0x44 CMakeFiles/payload.elf.dir/src/System/memory.c.obj
 .text.calloc   0x00000000       0x44 CMakeFiles/payload.elf.dir/src/System/memory.c.obj
 .text.GetSysMemoryAddress
                0x00000000       0x20 CMakeFiles/payload.elf.dir/src/System/memory.c.obj
 .text.IsStackMemory
                0x00000000       0x80 CMakeFiles/payload.elf.dir/src/System/memory.c.obj
 .text          0x00000000        0x0 CMakeFiles/payload.elf.dir/src/System/pmngr.c.obj
 .bss           0x00000000        0x0 CMakeFiles/payload.elf.dir/src/System/pmngr.c.obj
 .text.PMNGR_Initialize
                0x00000000       0x18 CMakeFiles/payload.elf.dir/src/System/pmngr.c.obj
 .text.PMNGR_GetPowerUpReason
                0x00000000       0x1c CMakeFiles/payload.elf.dir/src/System/pmngr.c.obj
 .text          0x00000000        0x0 CMakeFiles/payload.elf.dir/src/System/resource.c.obj
 .bss           0x00000000        0x0 CMakeFiles/payload.elf.dir/src/System/resource.c.obj
 .text          0x00000000        0x0 CMakeFiles/payload.elf.dir/src/System/ringbuf.c.obj
 .bss           0x00000000        0x0 CMakeFiles/payload.elf.dir/src/System/ringbuf.c.obj
 .text.RB_ReadData
                0x00000000      0x188 CMakeFiles/payload.elf.dir/src/System/ringbuf.c.obj
 .text.RB_GetCurrentFreeSpace
                0x00000000       0x60 CMakeFiles/payload.elf.dir/src/System/ringbuf.c.obj
 .text          0x00000000        0x0 CMakeFiles/payload.elf.dir/src/System/sf.c.obj
 .bss           0x00000000        0x0 CMakeFiles/payload.elf.dir/src/System/sf.c.obj
 .text          0x00000000        0x0 CMakeFiles/payload.elf.dir/src/System/tlsf.c.obj
 .bss           0x00000000        0x0 CMakeFiles/payload.elf.dir/src/System/tlsf.c.obj
 .text.add_new_area
                0x00000000      0x2cc CMakeFiles/payload.elf.dir/src/System/tlsf.c.obj
 .text.get_max_size
                0x00000000       0x28 CMakeFiles/payload.elf.dir/src/System/tlsf.c.obj
 .text.tlsf_realloc
                0x00000000       0x44 CMakeFiles/payload.elf.dir/src/System/tlsf.c.obj
 .text.tlsf_calloc
                0x00000000       0x44 CMakeFiles/payload.elf.dir/src/System/tlsf.c.obj
 .text.realloc_ex
                0x00000000      0x910 CMakeFiles/payload.elf.dir/src/System/tlsf.c.obj
 .text.calloc_ex
                0x00000000       0x94 CMakeFiles/payload.elf.dir/src/System/tlsf.c.obj
 .text          0x00000000        0x0 CMakeFiles/payload.elf.dir/src/System/utils.c.obj
 .bss           0x00000000        0x0 CMakeFiles/payload.elf.dir/src/System/utils.c.obj
 .text          0x00000000        0x0 CMakeFiles/payload.elf.dir/src/Lib/MT6261/Drivers/auxadc.c.obj
 .bss           0x00000000        0x0 CMakeFiles/payload.elf.dir/src/Lib/MT6261/Drivers/auxadc.c.obj
 .text.AUXADC_MeasureChannel
                0x00000000       0xf4 CMakeFiles/payload.elf.dir/src/Lib/MT6261/Drivers/auxadc.c.obj
 .text          0x00000000        0x0 CMakeFiles/payload.elf.dir/src/Lib/MT6261/Drivers/afe.c.obj
 .bss           0x00000000        0x0 CMakeFiles/payload.elf.dir/src/Lib/MT6261/Drivers/afe.c.obj
 .text.AFE_SwitchHSoff
                0x00000000       0xd0 CMakeFiles/payload.elf.dir/src/Lib/MT6261/Drivers/afe.c.obj
 .text.AFE_SwitchHPon
                0x00000000      0x2f0 CMakeFiles/payload.elf.dir/src/Lib/MT6261/Drivers/afe.c.obj
 .text.AFE_SwitchHPoff
                0x00000000      0x12c CMakeFiles/payload.elf.dir/src/Lib/MT6261/Drivers/afe.c.obj
 .text.BeepHz   0x00000000      0x134 CMakeFiles/payload.elf.dir/src/Lib/MT6261/Drivers/afe.c.obj
 .text          0x00000000        0x0 CMakeFiles/payload.elf.dir/src/Lib/MT6261/Drivers/emi.c.obj
 .bss           0x00000000        0x0 CMakeFiles/payload.elf.dir/src/Lib/MT6261/Drivers/emi.c.obj
 .text.EMI_MemoryRemap
                0x00000000       0x6c CMakeFiles/payload.elf.dir/src/Lib/MT6261/Drivers/emi.c.obj
 .text          0x00000000        0x0 CMakeFiles/payload.elf.dir/src/Lib/MT6261/Drivers/gpio.c.obj
 .bss           0x00000000        0x0 CMakeFiles/payload.elf.dir/src/Lib/MT6261/Drivers/gpio.c.obj
 .text          0x00000000        0x0 CMakeFiles/payload.elf.dir/src/Lib/MT6261/Drivers/gpt.c.obj
 .bss           0x00000000        0x0 CMakeFiles/payload.elf.dir/src/Lib/MT6261/Drivers/gpt.c.obj
 .text.GPT_StopTimer
                0x00000000      0x1e0 CMakeFiles/payload.elf.dir/src/Lib/MT6261/Drivers/gpt.c.obj
 .text.GPT_DisableTimer
                0x00000000       0xd4 CMakeFiles/payload.elf.dir/src/Lib/MT6261/Drivers/gpt.c.obj
 .text.GPT_Get26MTicksCount
                0x00000000       0x48 CMakeFiles/payload.elf.dir/src/Lib/MT6261/Drivers/gpt.c.obj
 .text.GPT_SleepTimers
                0x00000000       0xec CMakeFiles/payload.elf.dir/src/Lib/MT6261/Drivers/gpt.c.obj
 .text.GPT_ResumeTimers
                0x00000000       0xec CMakeFiles/payload.elf.dir/src/Lib/MT6261/Drivers/gpt.c.obj
 .text          0x00000000        0x0 CMakeFiles/payload.elf.dir/src/Lib/MT6261/Drivers/lcdif.c.obj
 .bss           0x00000000        0x0 CMakeFiles/payload.elf.dir/src/Lib/MT6261/Drivers/lcdif.c.obj
 .text.LCDIF_ReadData
                0x00000000       0x28 CMakeFiles/payload.elf.dir/src/Lib/MT6261/Drivers/lcdif.c.obj
 .text.LCDIF_GetLayerPosition
                0x00000000       0xe4 CMakeFiles/payload.elf.dir/src/Lib/MT6261/Drivers/lcdif.c.obj
 .text.LCDIF_SetLayerPosition
                0x00000000      0x4b8 CMakeFiles/payload.elf.dir/src/Lib/MT6261/Drivers/lcdif.c.obj
 .text.LCDIF_GetScreenPosition
                0x00000000       0x38 CMakeFiles/payload.elf.dir/src/Lib/MT6261/Drivers/lcdif.c.obj
 .text.LCDIF_SetScreenPosition
                0x00000000      0x168 CMakeFiles/payload.elf.dir/src/Lib/MT6261/Drivers/lcdif.c.obj
 .text          0x00000000        0x0 CMakeFiles/payload.elf.dir/src/Lib/MT6261/Drivers/msdc.c.obj
 .bss           0x00000000        0x0 CMakeFiles/payload.elf.dir/src/Lib/MT6261/Drivers/msdc.c.obj
 .text.MSDC_SetClock
                0x00000000      0x178 CMakeFiles/payload.elf.dir/src/Lib/MT6261/Drivers/msdc.c.obj
 .text.MSDC_ClockInit
                0x00000000       0x84 CMakeFiles/payload.elf.dir/src/Lib/MT6261/Drivers/msdc.c.obj
 .text.MSDC_IOInit
                0x00000000       0x74 CMakeFiles/payload.elf.dir/src/Lib/MT6261/Drivers/msdc.c.obj
 .text.MSDC_turnOnVMC
                0x00000000       0x28 CMakeFiles/payload.elf.dir/src/Lib/MT6261/Drivers/msdc.c.obj
 .text.MSDC_Init
                0x00000000      0x174 CMakeFiles/payload.elf.dir/src/Lib/MT6261/Drivers/msdc.c.obj
 .text.SD_DebugResponse
                0x00000000       0x88 CMakeFiles/payload.elf.dir/src/Lib/MT6261/Drivers/msdc.c.obj
 .text.sd_get_bit_field_value
                0x00000000      0x14c CMakeFiles/payload.elf.dir/src/Lib/MT6261/Drivers/msdc.c.obj
 .text.sd_analysis_csd
                0x00000000      0x460 CMakeFiles/payload.elf.dir/src/Lib/MT6261/Drivers/msdc.c.obj
 .text.SD_Reset
                0x00000000       0x20 CMakeFiles/payload.elf.dir/src/Lib/MT6261/Drivers/msdc.c.obj
 .text.SD_GetCID
                0x00000000       0x48 CMakeFiles/payload.elf.dir/src/Lib/MT6261/Drivers/msdc.c.obj
 .text.SD_GetRCA
                0x00000000       0xc8 CMakeFiles/payload.elf.dir/src/Lib/MT6261/Drivers/msdc.c.obj
 .text.SD_SelectCard
                0x00000000       0x6c CMakeFiles/payload.elf.dir/src/Lib/MT6261/Drivers/msdc.c.obj
 .text.SD_Cmd55
                0x00000000       0x84 CMakeFiles/payload.elf.dir/src/Lib/MT6261/Drivers/msdc.c.obj
 .text.SD_Card_Type
                0x00000000      0x2d4 CMakeFiles/payload.elf.dir/src/Lib/MT6261/Drivers/msdc.c.obj
 .text.SD_GetCSD
                0x00000000      0x114 CMakeFiles/payload.elf.dir/src/Lib/MT6261/Drivers/msdc.c.obj
 .text.SD_Init  0x00000000      0x158 CMakeFiles/payload.elf.dir/src/Lib/MT6261/Drivers/msdc.c.obj
 .text.SD_WriteBlock
                0x00000000      0x24c CMakeFiles/payload.elf.dir/src/Lib/MT6261/Drivers/msdc.c.obj
 .text          0x00000000        0x0 CMakeFiles/payload.elf.dir/src/Lib/MT6261/Drivers/nvic.c.obj
 .bss           0x00000000        0x0 CMakeFiles/payload.elf.dir/src/Lib/MT6261/Drivers/nvic.c.obj
 .text.NVIC_DisableEINT
                0x00000000       0x54 CMakeFiles/payload.elf.dir/src/Lib/MT6261/Drivers/nvic.c.obj
 .text          0x00000000        0x0 CMakeFiles/payload.elf.dir/src/Lib/MT6261/Drivers/pctl.c.obj
 .bss           0x00000000        0x0 CMakeFiles/payload.elf.dir/src/Lib/MT6261/Drivers/pctl.c.obj
 .text          0x00000000        0x0 CMakeFiles/payload.elf.dir/src/Lib/MT6261/Drivers/pll.c.obj
 .bss           0x00000000        0x0 CMakeFiles/payload.elf.dir/src/Lib/MT6261/Drivers/pll.c.obj
 .text.PLL_Initialize
                0x00000000      0x178 CMakeFiles/payload.elf.dir/src/Lib/MT6261/Drivers/pll.c.obj
 .text          0x00000000        0x0 CMakeFiles/payload.elf.dir/src/Lib/MT6261/Drivers/pmu.c.obj
 .bss           0x00000000        0x0 CMakeFiles/payload.elf.dir/src/Lib/MT6261/Drivers/pmu.c.obj
 .text.PMU_SetPWRKEYHandler
                0x00000000       0x3c CMakeFiles/payload.elf.dir/src/Lib/MT6261/Drivers/pmu.c.obj
 .text.PMU_SetChargerWDTInterval
                0x00000000       0xd4 CMakeFiles/payload.elf.dir/src/Lib/MT6261/Drivers/pmu.c.obj
 .text.PMU_IsBatteryCharging
                0x00000000       0x24 CMakeFiles/payload.elf.dir/src/Lib/MT6261/Drivers/pmu.c.obj
 .text.PMU_GetBatteryVoltageMV
                0x00000000       0x20 CMakeFiles/payload.elf.dir/src/Lib/MT6261/Drivers/pmu.c.obj
 .text.PMU_GetBatteryChargeLevel
                0x00000000       0x24 CMakeFiles/payload.elf.dir/src/Lib/MT6261/Drivers/pmu.c.obj
 .text.PMU_EnableUSBDLMode
                0x00000000       0x6c CMakeFiles/payload.elf.dir/src/Lib/MT6261/Drivers/pmu.c.obj
 .text.PMU_SetVibrationOutput
                0x00000000       0x58 CMakeFiles/payload.elf.dir/src/Lib/MT6261/Drivers/pmu.c.obj
 .text.PMU_TurnOnVMC
                0x00000000       0x80 CMakeFiles/payload.elf.dir/src/Lib/MT6261/Drivers/pmu.c.obj
 .text.PMU_SetVoltageVMC
                0x00000000       0xb0 CMakeFiles/payload.elf.dir/src/Lib/MT6261/Drivers/pmu.c.obj
 .text.PMU_GetSelectedVoltageVMC
                0x00000000       0x44 CMakeFiles/payload.elf.dir/src/Lib/MT6261/Drivers/pmu.c.obj
 .text          0x00000000        0x0 CMakeFiles/payload.elf.dir/src/Lib/MT6261/Drivers/pwm.c.obj
 .bss           0x00000000        0x0 CMakeFiles/payload.elf.dir/src/Lib/MT6261/Drivers/pwm.c.obj
 .text.PWM_SetCount
                0x00000000       0x84 CMakeFiles/payload.elf.dir/src/Lib/MT6261/Drivers/pwm.c.obj
 .text.PWM_SetThreshold
                0x00000000      0x124 CMakeFiles/payload.elf.dir/src/Lib/MT6261/Drivers/pwm.c.obj
 .text          0x00000000        0x0 CMakeFiles/payload.elf.dir/src/Lib/MT6261/Drivers/rgu.c.obj
 .bss           0x00000000        0x0 CMakeFiles/payload.elf.dir/src/Lib/MT6261/Drivers/rgu.c.obj
 .text.RGU_SetWDTInterval
                0x00000000       0xc8 CMakeFiles/payload.elf.dir/src/Lib/MT6261/Drivers/rgu.c.obj
 .text.RGU_EnableWDT
                0x00000000       0x54 CMakeFiles/payload.elf.dir/src/Lib/MT6261/Drivers/rgu.c.obj
 .text.RGU_DisableWDT
                0x00000000       0x28 CMakeFiles/payload.elf.dir/src/Lib/MT6261/Drivers/rgu.c.obj
 .text.RGU_ReadWDTStatus
                0x00000000       0x6c CMakeFiles/payload.elf.dir/src/Lib/MT6261/Drivers/rgu.c.obj
 .text.RGU_RaiseWDTSWReset
                0x00000000       0x2c CMakeFiles/payload.elf.dir/src/Lib/MT6261/Drivers/rgu.c.obj
 .text          0x00000000        0x0 CMakeFiles/payload.elf.dir/src/Lib/MT6261/Drivers/rtc.c.obj
 .bss           0x00000000        0x0 CMakeFiles/payload.elf.dir/src/Lib/MT6261/Drivers/rtc.c.obj
 .text.RTC_LockBBPower
                0x00000000       0x8c CMakeFiles/payload.elf.dir/src/Lib/MT6261/Drivers/rtc.c.obj
 .text.RTC_UnlockBBPower
                0x00000000       0x7c CMakeFiles/payload.elf.dir/src/Lib/MT6261/Drivers/rtc.c.obj
 .text.RTC_EnablePowerUp
                0x00000000       0x88 CMakeFiles/payload.elf.dir/src/Lib/MT6261/Drivers/rtc.c.obj
 .text.RTC_DisablePowerUp
                0x00000000       0x7c CMakeFiles/payload.elf.dir/src/Lib/MT6261/Drivers/rtc.c.obj
 .text.RTC_IsAlarmActive
                0x00000000       0xa0 CMakeFiles/payload.elf.dir/src/Lib/MT6261/Drivers/rtc.c.obj
 .text.RTC_GetDateTime
                0x00000000      0x100 CMakeFiles/payload.elf.dir/src/Lib/MT6261/Drivers/rtc.c.obj
 .text.RTC_GetAlarmDateTime
                0x00000000      0x100 CMakeFiles/payload.elf.dir/src/Lib/MT6261/Drivers/rtc.c.obj
 .text.RTC_SetCIIEnable
                0x00000000       0xb4 CMakeFiles/payload.elf.dir/src/Lib/MT6261/Drivers/rtc.c.obj
 .text.RTC_Sleep
                0x00000000       0x18 CMakeFiles/payload.elf.dir/src/Lib/MT6261/Drivers/rtc.c.obj
 .text.RTC_Resume
                0x00000000       0x18 CMakeFiles/payload.elf.dir/src/Lib/MT6261/Drivers/rtc.c.obj
 .text          0x00000000        0x0 CMakeFiles/payload.elf.dir/src/Lib/MT6261/Drivers/sfi.c.obj
 .bss           0x00000000        0x0 CMakeFiles/payload.elf.dir/src/Lib/MT6261/Drivers/sfi.c.obj
 .text          0x00000000        0x0 CMakeFiles/payload.elf.dir/src/Lib/MT6261/Drivers/spi.c.obj
 .bss           0x00000000        0x0 CMakeFiles/payload.elf.dir/src/Lib/MT6261/Drivers/spi.c.obj
 .text.SPI_WaitBusy
                0x00000000       0x38 CMakeFiles/payload.elf.dir/src/Lib/MT6261/Drivers/spi.c.obj
 .text.SPI_Reset
                0x00000000       0x50 CMakeFiles/payload.elf.dir/src/Lib/MT6261/Drivers/spi.c.obj
 .text.SPI_SetupRXTX_DMA
                0x00000000       0xd4 CMakeFiles/payload.elf.dir/src/Lib/MT6261/Drivers/spi.c.obj
 .text.SPI_EnableInterface
                0x00000000       0xa0 CMakeFiles/payload.elf.dir/src/Lib/MT6261/Drivers/spi.c.obj
 .text.SPI_DisableInterface
                0x00000000       0xa0 CMakeFiles/payload.elf.dir/src/Lib/MT6261/Drivers/spi.c.obj
 .text.SPI_SetupCS
                0x00000000       0x94 CMakeFiles/payload.elf.dir/src/Lib/MT6261/Drivers/spi.c.obj
 .text.SPI_SetupSpeed
                0x00000000      0x108 CMakeFiles/payload.elf.dir/src/Lib/MT6261/Drivers/spi.c.obj
 .text.SPI_SetupEndian
                0x00000000       0xec CMakeFiles/payload.elf.dir/src/Lib/MT6261/Drivers/spi.c.obj
 .text.SPI_SetupInterface
                0x00000000       0xbc CMakeFiles/payload.elf.dir/src/Lib/MT6261/Drivers/spi.c.obj
 .text.SPI_RXTXDataBufferDMA
                0x00000000      0x1fc CMakeFiles/payload.elf.dir/src/Lib/MT6261/Drivers/spi.c.obj
 .text          0x00000000        0x0 CMakeFiles/payload.elf.dir/src/Lib/MT6261/Drivers/tcmcache.c.obj
 .bss           0x00000000        0x0 CMakeFiles/payload.elf.dir/src/Lib/MT6261/Drivers/tcmcache.c.obj
 .text.MPU_DisableCache
                0x00000000       0x70 CMakeFiles/payload.elf.dir/src/Lib/MT6261/Drivers/tcmcache.c.obj
 .text.MPU_EnableCache
                0x00000000       0x40 CMakeFiles/payload.elf.dir/src/Lib/MT6261/Drivers/tcmcache.c.obj
 .text.MPU_RestoreCacheEnState
                0x00000000       0xbc CMakeFiles/payload.elf.dir/src/Lib/MT6261/Drivers/tcmcache.c.obj
 .text          0x00000000        0x0 CMakeFiles/payload.elf.dir/src/Lib/MT6261/Drivers/usart.c.obj
 .bss           0x00000000        0x0 CMakeFiles/payload.elf.dir/src/Lib/MT6261/Drivers/usart.c.obj
 .text.USART_FlashRX
                0x00000000       0x90 CMakeFiles/payload.elf.dir/src/Lib/MT6261/Drivers/usart.c.obj
 .text.USART_FlashTX
                0x00000000       0x90 CMakeFiles/payload.elf.dir/src/Lib/MT6261/Drivers/usart.c.obj
 .text.USART_SendChar
                0x00000000       0x8c CMakeFiles/payload.elf.dir/src/Lib/MT6261/Drivers/usart.c.obj
 .text.USART_SendString
                0x00000000       0x64 CMakeFiles/payload.elf.dir/src/Lib/MT6261/Drivers/usart.c.obj
 .text.USART_SendBufferInt
                0x00000000      0x120 CMakeFiles/payload.elf.dir/src/Lib/MT6261/Drivers/usart.c.obj
 .text          0x00000000        0x0 CMakeFiles/payload.elf.dir/src/Lib/MT6261/Drivers/usb.c.obj
 .bss           0x00000000        0x0 CMakeFiles/payload.elf.dir/src/Lib/MT6261/Drivers/usb.c.obj
 .text.USB_SetOnStateChangeHandler
                0x00000000       0x30 CMakeFiles/payload.elf.dir/src/Lib/MT6261/Drivers/usb.c.obj
 .text          0x00000000        0x0 CMakeFiles/payload.elf.dir/src/Lib/MT6261/Drivers/ustimer.c.obj
 .bss           0x00000000        0x0 CMakeFiles/payload.elf.dir/src/Lib/MT6261/Drivers/ustimer.c.obj
 .text.USC_StopCounter
                0x00000000       0x2c CMakeFiles/payload.elf.dir/src/Lib/MT6261/Drivers/ustimer.c.obj
 .text          0x00000000        0x0 CMakeFiles/payload.elf.dir/src/Lib/USB/usb9.c.obj
 .bss           0x00000000        0x0 CMakeFiles/payload.elf.dir/src/Lib/USB/usb9.c.obj
 .text          0x00000000        0x0 CMakeFiles/payload.elf.dir/src/GUI/gdi.c.obj
 .bss           0x00000000        0x0 CMakeFiles/payload.elf.dir/src/GUI/gdi.c.obj
 .text.GDI_DrawLine
                0x00000000       0xf8 CMakeFiles/payload.elf.dir/src/GUI/gdi.c.obj
 .text.GDI_SetPixel
                0x00000000       0xd4 CMakeFiles/payload.elf.dir/src/GUI/gdi.c.obj
 .text          0x00000000        0x0 CMakeFiles/payload.elf.dir/src/GUI/gdifont.c.obj
 .bss           0x00000000        0x0 CMakeFiles/payload.elf.dir/src/GUI/gdifont.c.obj
 .text          0x00000000        0x0 CMakeFiles/payload.elf.dir/src/GUI/gdiutils.c.obj
 .bss           0x00000000        0x0 CMakeFiles/payload.elf.dir/src/GUI/gdiutils.c.obj
 .text.SizeXY   0x00000000       0x74 CMakeFiles/payload.elf.dir/src/GUI/gdiutils.c.obj
 .text.IsRectInRect
                0x00000000       0xfc CMakeFiles/payload.elf.dir/src/GUI/gdiutils.c.obj
 .text.GDI_LocalToGlobalPt
                0x00000000      0x104 CMakeFiles/payload.elf.dir/src/GUI/gdiutils.c.obj
 .text.GDI_ADDRectangles
                0x00000000      0x2c0 CMakeFiles/payload.elf.dir/src/GUI/gdiutils.c.obj
 .text.GDI_ADDRectToRegion
                0x00000000      0x20c CMakeFiles/payload.elf.dir/src/GUI/gdiutils.c.obj
 .text          0x00000000        0x0 CMakeFiles/payload.elf.dir/src/GUI/gui.c.obj
 .bss           0x00000000        0x0 CMakeFiles/payload.elf.dir/src/GUI/gui.c.obj
 .text          0x00000000        0x0 CMakeFiles/payload.elf.dir/src/GUI/guibutton.c.obj
 .bss           0x00000000        0x0 CMakeFiles/payload.elf.dir/src/GUI/guibutton.c.obj
 .text.GUI_CreateButton
                0x00000000      0x330 CMakeFiles/payload.elf.dir/src/GUI/guibutton.c.obj
 .text.GUI_GetTextButton
                0x00000000       0x5c CMakeFiles/payload.elf.dir/src/GUI/guibutton.c.obj
 .text.GUI_SetTextButton
                0x00000000       0x84 CMakeFiles/payload.elf.dir/src/GUI/guibutton.c.obj
 .text          0x00000000        0x0 CMakeFiles/payload.elf.dir/src/GUI/guilabel.c.obj
 .bss           0x00000000        0x0 CMakeFiles/payload.elf.dir/src/GUI/guilabel.c.obj
 .text.GUI_CreateLabel
                0x00000000      0x30c CMakeFiles/payload.elf.dir/src/GUI/guilabel.c.obj
 .text.GUI_GetTextLabel
                0x00000000       0x5c CMakeFiles/payload.elf.dir/src/GUI/guilabel.c.obj
 .text.GUI_SetTextLabel
                0x00000000       0x84 CMakeFiles/payload.elf.dir/src/GUI/guilabel.c.obj
 .text          0x00000000        0x0 CMakeFiles/payload.elf.dir/src/GUI/guiobject.c.obj
 .bss           0x00000000        0x0 CMakeFiles/payload.elf.dir/src/GUI/guiobject.c.obj
 .text.GUI_UpdateChildPositions
                0x00000000      0x190 CMakeFiles/payload.elf.dir/src/GUI/guiobject.c.obj
 .text.GUI_GetTopNonWindowObject
                0x00000000       0xec CMakeFiles/payload.elf.dir/src/GUI/guiobject.c.obj
 .text.GUI_SetObjectHandlerOnPress
                0x00000000       0x48 CMakeFiles/payload.elf.dir/src/GUI/guiobject.c.obj
 .text.GUI_SetObjectHandlerOnRelease
                0x00000000       0x48 CMakeFiles/payload.elf.dir/src/GUI/guiobject.c.obj
 .text.GUI_SetObjectHandlerOnMove
                0x00000000       0x48 CMakeFiles/payload.elf.dir/src/GUI/guiobject.c.obj
 .text.GUI_SetObjectHandlerOnClick
                0x00000000       0x48 CMakeFiles/payload.elf.dir/src/GUI/guiobject.c.obj
 .text.GUI_SetObjectHandlerOnPaint
                0x00000000       0x48 CMakeFiles/payload.elf.dir/src/GUI/guiobject.c.obj
 .text.GUI_SetObjectHandlerOnDestroy
                0x00000000       0x48 CMakeFiles/payload.elf.dir/src/GUI/guiobject.c.obj
 .text.GUI_GetObjectPosition
                0x00000000       0xb8 CMakeFiles/payload.elf.dir/src/GUI/guiobject.c.obj
 .text.GUI_SetObjectPosition
                0x00000000      0x440 CMakeFiles/payload.elf.dir/src/GUI/guiobject.c.obj
 .text.GUI_GetObjectEnabled
                0x00000000       0x4c CMakeFiles/payload.elf.dir/src/GUI/guiobject.c.obj
 .text.GUI_SetObjectEnabled
                0x00000000       0xc4 CMakeFiles/payload.elf.dir/src/GUI/guiobject.c.obj
 .text.GUI_GetObjectVisibility
                0x00000000       0x4c CMakeFiles/payload.elf.dir/src/GUI/guiobject.c.obj
 .text.GUI_GetObjectText
                0x00000000       0x80 CMakeFiles/payload.elf.dir/src/GUI/guiobject.c.obj
 .text.GUI_SetObjectText
                0x00000000       0xc8 CMakeFiles/payload.elf.dir/src/GUI/guiobject.c.obj
 .text.GUI_GetObjectFont
                0x00000000       0x9c CMakeFiles/payload.elf.dir/src/GUI/guiobject.c.obj
 .text.GUI_SetObjectFont
                0x00000000       0xbc CMakeFiles/payload.elf.dir/src/GUI/guiobject.c.obj
 .text.GUI_GetObjectTextColor
                0x00000000       0x9c CMakeFiles/payload.elf.dir/src/GUI/guiobject.c.obj
 .text.GUI_SetObjecTextColor
                0x00000000      0x128 CMakeFiles/payload.elf.dir/src/GUI/guiobject.c.obj
 .text.GUI_GetObjectCaption
                0x00000000       0x9c CMakeFiles/payload.elf.dir/src/GUI/guiobject.c.obj
 .text.GUI_SetObjectCaption
                0x00000000      0x180 CMakeFiles/payload.elf.dir/src/GUI/guiobject.c.obj
 .text.GUI_DestroyObject
                0x00000000       0x7c CMakeFiles/payload.elf.dir/src/GUI/guiobject.c.obj
 .rodata.GetTextObject.7426
                0x00000000       0x10 CMakeFiles/payload.elf.dir/src/GUI/guiobject.c.obj
 .rodata.SetTextObject.7434
                0x00000000       0x10 CMakeFiles/payload.elf.dir/src/GUI/guiobject.c.obj
 .rodata.GetTextObject.7439
                0x00000000       0x10 CMakeFiles/payload.elf.dir/src/GUI/guiobject.c.obj
 .rodata.GetTextObject.7448
                0x00000000       0x10 CMakeFiles/payload.elf.dir/src/GUI/guiobject.c.obj
 .rodata.GetTextObject.7453
                0x00000000       0x10 CMakeFiles/payload.elf.dir/src/GUI/guiobject.c.obj
 .rodata.GetTextObject.7462
                0x00000000       0x10 CMakeFiles/payload.elf.dir/src/GUI/guiobject.c.obj
 .rodata.SetTextObject.7466
                0x00000000       0x10 CMakeFiles/payload.elf.dir/src/GUI/guiobject.c.obj
 .rodata.GetTextObject.7471
                0x00000000       0x10 CMakeFiles/payload.elf.dir/src/GUI/guiobject.c.obj
 .rodata.GetTextObject.7480
                0x00000000       0x10 CMakeFiles/payload.elf.dir/src/GUI/guiobject.c.obj
 .text          0x00000000        0x0 CMakeFiles/payload.elf.dir/src/GUI/guiwin.c.obj
 .bss           0x00000000        0x0 CMakeFiles/payload.elf.dir/src/GUI/guiwin.c.obj
 .text.GUI_CreateWindow
                0x00000000      0x370 CMakeFiles/payload.elf.dir/src/GUI/guiwin.c.obj
 .text.GUI_GetWindowZIndex
                0x00000000       0xa0 CMakeFiles/payload.elf.dir/src/GUI/guiwin.c.obj
 .text.GUI_GetTopWindow
                0x00000000      0x18c CMakeFiles/payload.elf.dir/src/GUI/guiwin.c.obj
 .text          0x00000000        0x0 CMakeFiles/payload.elf.dir/src/Application/appinit.c.obj
 .bss           0x00000000        0x0 CMakeFiles/payload.elf.dir/src/Application/appinit.c.obj
 .bss.gpio_counter_timer
                0x00000000        0x4 CMakeFiles/payload.elf.dir/src/Application/appinit.c.obj
 .text.GPIO_CounterTick
                0x00000000      0x140 CMakeFiles/payload.elf.dir/src/Application/appinit.c.obj
 .text.GPIO_CounterInit
                0x00000000       0xe4 CMakeFiles/payload.elf.dir/src/Application/appinit.c.obj
 .bss.value.7348
                0x00000000        0x2 CMakeFiles/payload.elf.dir/src/Application/appinit.c.obj
 .bss.gpio_test_trigger.7405
                0x00000000        0x4 CMakeFiles/payload.elf.dir/src/Application/appinit.c.obj
 .bss.led_toggle_counter.7404
                0x00000000        0x4 CMakeFiles/payload.elf.dir/src/Application/appinit.c.obj
 .text          0x00000000        0x0 CMakeFiles/payload.elf.dir/src/Application/audio_note.c.obj
 .bss           0x00000000        0x0 CMakeFiles/payload.elf.dir/src/Application/audio_note.c.obj
 .text          0x00000000        0x0 CMakeFiles/payload.elf.dir/src/Application/Drivers/backlight.c.obj
 .bss           0x00000000        0x0 CMakeFiles/payload.elf.dir/src/Application/Drivers/backlight.c.obj
 .text.PMUBL_GetBacklightStage
                0x00000000       0x24 CMakeFiles/payload.elf.dir/src/Application/Drivers/backlight.c.obj
 .text          0x00000000        0x0 CMakeFiles/payload.elf.dir/src/Application/Drivers/delay.c.obj
 .bss           0x00000000        0x0 CMakeFiles/payload.elf.dir/src/Application/Drivers/delay.c.obj
 .text.delay_cycles
                0x00000000       0xc4 CMakeFiles/payload.elf.dir/src/Application/Drivers/delay.c.obj
 .rodata        0x00000000       0xfa CMakeFiles/payload.elf.dir/src/Application/Drivers/delay.c.obj
 .text.delay_test
                0x00000000      0x12c CMakeFiles/payload.elf.dir/src/Application/Drivers/delay.c.obj
 .text          0x00000000        0x0 CMakeFiles/payload.elf.dir/src/Application/Drivers/dflib.c.obj
 .bss           0x00000000        0x0 CMakeFiles/payload.elf.dir/src/Application/Drivers/dflib.c.obj
 .text          0x00000000        0x0 CMakeFiles/payload.elf.dir/src/Application/Drivers/ft6236.c.obj
 .bss           0x00000000        0x0 CMakeFiles/payload.elf.dir/src/Application/Drivers/ft6236.c.obj
 .text.FT6236_ReadData
                0x00000000     0x17d8 CMakeFiles/payload.elf.dir/src/Application/Drivers/ft6236.c.obj
 .text.FT6236_WriteData
                0x00000000     0x117c CMakeFiles/payload.elf.dir/src/Application/Drivers/ft6236.c.obj
 .text.FT6236_ISR
                0x00000000      0x2ac CMakeFiles/payload.elf.dir/src/Application/Drivers/ft6236.c.obj
 .text.FT6236_RegisterISR
                0x00000000       0x44 CMakeFiles/payload.elf.dir/src/Application/Drivers/ft6236.c.obj
 .text.FT6236_UnregisterISR
                0x00000000       0x1c CMakeFiles/payload.elf.dir/src/Application/Drivers/ft6236.c.obj
 .rodata        0x00000000       0x52 CMakeFiles/payload.elf.dir/src/Application/Drivers/ft6236.c.obj
 .text.FT6236_Initialize
                0x00000000     0x1364 CMakeFiles/payload.elf.dir/src/Application/Drivers/ft6236.c.obj
 .text.FT6236_Sleep
                0x00000000       0x18 CMakeFiles/payload.elf.dir/src/Application/Drivers/ft6236.c.obj
 .text.FT6236_Resume
                0x00000000       0x18 CMakeFiles/payload.elf.dir/src/Application/Drivers/ft6236.c.obj
 COMMON         0x00000000        0xa CMakeFiles/payload.elf.dir/src/Application/Drivers/ft6236.c.obj
 .text          0x00000000        0x0 CMakeFiles/payload.elf.dir/src/Application/Drivers/ili9341.c.obj
 .bss           0x00000000        0x0 CMakeFiles/payload.elf.dir/src/Application/Drivers/ili9341.c.obj
 .text.ILI9341_SetInversion
                0x00000000       0x40 CMakeFiles/payload.elf.dir/src/Application/Drivers/ili9341.c.obj
 .text.ILI9341_DrawFilledRect
                0x00000000      0x354 CMakeFiles/payload.elf.dir/src/Application/Drivers/ili9341.c.obj
 .text.ILI9341_ResumeLCD
                0x00000000       0x20 CMakeFiles/payload.elf.dir/src/Application/Drivers/ili9341.c.obj
 .rodata        0x00000000       0x82 CMakeFiles/payload.elf.dir/src/Application/Drivers/ili9341.c.obj
 .text.ILI9341_DirectPixelWrite
                0x00000000      0x108 CMakeFiles/payload.elf.dir/src/Application/Drivers/ili9341.c.obj
 .text.ILI9341_FlushFrameBuffer
                0x00000000       0xf8 CMakeFiles/payload.elf.dir/src/Application/Drivers/ili9341.c.obj
 .text.ILI9341_UpdateRect
                0x00000000       0x6c CMakeFiles/payload.elf.dir/src/Application/Drivers/ili9341.c.obj
 .text          0x00000000        0x0 CMakeFiles/payload.elf.dir/src/Application/Drivers/simple_keypad.c.obj
 .bss           0x00000000        0x0 CMakeFiles/payload.elf.dir/src/Application/Drivers/simple_keypad.c.obj
 .text.Keypad_LogRaw
                0x00000000       0x20 CMakeFiles/payload.elf.dir/src/Application/Drivers/simple_keypad.c.obj
 .text.Keypad_DumpRaw
                0x00000000       0xa8 CMakeFiles/payload.elf.dir/src/Application/Drivers/simple_keypad.c.obj
 .text.Keypad_SetLearnMode
                0x00000000       0x60 CMakeFiles/payload.elf.dir/src/Application/Drivers/simple_keypad.c.obj
 .text.Keypad_SetVisualDebug
                0x00000000       0x34 CMakeFiles/payload.elf.dir/src/Application/Drivers/simple_keypad.c.obj
 .text.Keypad_DrawOverlay
                0x00000000      0x1ec CMakeFiles/payload.elf.dir/src/Application/Drivers/simple_keypad.c.obj
 .text          0x00000000        0x0 CMakeFiles/payload.elf.dir/src/Application/Drivers/single_led.c.obj
 .bss           0x00000000        0x0 CMakeFiles/payload.elf.dir/src/Application/Drivers/single_led.c.obj
 .text.SingleLED_Flash_Pattern
                0x00000000       0xd8 CMakeFiles/payload.elf.dir/src/Application/Drivers/single_led.c.obj
 .text          0x00000000        0x0 CMakeFiles/payload.elf.dir/src/Application/Drivers/sdcard.c.obj
 .bss           0x00000000        0x0 CMakeFiles/payload.elf.dir/src/Application/Drivers/sdcard.c.obj
 .text.SDCARD_Initialize
                0x00000000       0xec CMakeFiles/payload.elf.dir/src/Application/Drivers/sdcard.c.obj
 .text          0x00000000        0x0 CMakeFiles/payload.elf.dir/src/Application/pcm_player.c.obj
 .bss           0x00000000        0x0 CMakeFiles/payload.elf.dir/src/Application/pcm_player.c.obj
 .text.AFE_SetOutputVolume
                0x00000000       0x38 CMakeFiles/payload.elf.dir/src/Application/pcm_player.c.obj
 .text.PCM_Player_Init
                0x00000000       0x40 CMakeFiles/payload.elf.dir/src/Application/pcm_player.c.obj
 .text          0x00000000        0x0 CMakeFiles/payload.elf.dir/src/Application/Drivers/usbdevice_cdc.c.obj
 .bss           0x00000000        0x0 CMakeFiles/payload.elf.dir/src/Application/Drivers/usbdevice_cdc.c.obj
 .text.USB_CDC_Close
                0x00000000       0x8c CMakeFiles/payload.elf.dir/src/Application/Drivers/usbdevice_cdc.c.obj
 .text.USB_CDC_Read
                0x00000000       0x94 CMakeFiles/payload.elf.dir/src/Application/Drivers/usbdevice_cdc.c.obj
 .text.USB_CDC_FlashRXBuffer
                0x00000000       0x78 CMakeFiles/payload.elf.dir/src/Application/Drivers/usbdevice_cdc.c.obj
 .text          0x00000000        0x0 c:/projects/ultra700/gcc/bin/../lib/gcc/arm-none-eabi/9.3.1/../../../../arm-none-eabi/lib\libc.a(lib_a-fflush.o)
 .bss           0x00000000        0x0 c:/projects/ultra700/gcc/bin/../lib/gcc/arm-none-eabi/9.3.1/../../../../arm-none-eabi/lib\libc.a(lib_a-fflush.o)
 .text          0x00000000        0x0 c:/projects/ultra700/gcc/bin/../lib/gcc/arm-none-eabi/9.3.1/../../../../arm-none-eabi/lib\libc.a(lib_a-findfp.o)
 .bss           0x00000000        0x0 c:/projects/ultra700/gcc/bin/../lib/gcc/arm-none-eabi/9.3.1/../../../../arm-none-eabi/lib\libc.a(lib_a-findfp.o)
 .text.__fp_lock
                0x00000000       0x38 c:/projects/ultra700/gcc/bin/../lib/gcc/arm-none-eabi/9.3.1/../../../../arm-none-eabi/lib\libc.a(lib_a-findfp.o)
 .text.__fp_unlock
                0x00000000       0x38 c:/projects/ultra700/gcc/bin/../lib/gcc/arm-none-eabi/9.3.1/../../../../arm-none-eabi/lib\libc.a(lib_a-findfp.o)
 .text.__sfmoreglue
                0x00000000       0x50 c:/projects/ultra700/gcc/bin/../lib/gcc/arm-none-eabi/9.3.1/../../../../arm-none-eabi/lib\libc.a(lib_a-findfp.o)
 .text._cleanup
                0x00000000       0x24 c:/projects/ultra700/gcc/bin/../lib/gcc/arm-none-eabi/9.3.1/../../../../arm-none-eabi/lib\libc.a(lib_a-findfp.o)
 .text.__sfp    0x00000000      0x114 c:/projects/ultra700/gcc/bin/../lib/gcc/arm-none-eabi/9.3.1/../../../../arm-none-eabi/lib\libc.a(lib_a-findfp.o)
 .text.__sinit_lock_acquire
                0x00000000       0x18 c:/projects/ultra700/gcc/bin/../lib/gcc/arm-none-eabi/9.3.1/../../../../arm-none-eabi/lib\libc.a(lib_a-findfp.o)
 .text.__sinit_lock_release
                0x00000000       0x18 c:/projects/ultra700/gcc/bin/../lib/gcc/arm-none-eabi/9.3.1/../../../../arm-none-eabi/lib\libc.a(lib_a-findfp.o)
 .text.__fp_lock_all
                0x00000000       0x30 c:/projects/ultra700/gcc/bin/../lib/gcc/arm-none-eabi/9.3.1/../../../../arm-none-eabi/lib\libc.a(lib_a-findfp.o)
 .text.__fp_unlock_all
                0x00000000       0x30 c:/projects/ultra700/gcc/bin/../lib/gcc/arm-none-eabi/9.3.1/../../../../arm-none-eabi/lib\libc.a(lib_a-findfp.o)
 .text          0x00000000        0x0 c:/projects/ultra700/gcc/bin/../lib/gcc/arm-none-eabi/9.3.1/../../../../arm-none-eabi/lib\libc.a(lib_a-freer.o)
 .bss           0x00000000        0x0 c:/projects/ultra700/gcc/bin/../lib/gcc/arm-none-eabi/9.3.1/../../../../arm-none-eabi/lib\libc.a(lib_a-freer.o)
 .text          0x00000000        0x0 c:/projects/ultra700/gcc/bin/../lib/gcc/arm-none-eabi/9.3.1/../../../../arm-none-eabi/lib\libc.a(lib_a-fwalk.o)
 .bss           0x00000000        0x0 c:/projects/ultra700/gcc/bin/../lib/gcc/arm-none-eabi/9.3.1/../../../../arm-none-eabi/lib\libc.a(lib_a-fwalk.o)
 .text._fwalk   0x00000000       0x70 c:/projects/ultra700/gcc/bin/../lib/gcc/arm-none-eabi/9.3.1/../../../../arm-none-eabi/lib\libc.a(lib_a-fwalk.o)
 .text          0x00000000        0x0 c:/projects/ultra700/gcc/bin/../lib/gcc/arm-none-eabi/9.3.1/../../../../arm-none-eabi/lib\libc.a(lib_a-impure.o)
 .bss           0x00000000        0x0 c:/projects/ultra700/gcc/bin/../lib/gcc/arm-none-eabi/9.3.1/../../../../arm-none-eabi/lib\libc.a(lib_a-impure.o)
 .text          0x00000000        0x0 c:/projects/ultra700/gcc/bin/../lib/gcc/arm-none-eabi/9.3.1/../../../../arm-none-eabi/lib\libc.a(lib_a-lock.o)
 .bss           0x00000000        0x0 c:/projects/ultra700/gcc/bin/../lib/gcc/arm-none-eabi/9.3.1/../../../../arm-none-eabi/lib\libc.a(lib_a-lock.o)
 .text.__retarget_lock_init
                0x00000000        0x4 c:/projects/ultra700/gcc/bin/../lib/gcc/arm-none-eabi/9.3.1/../../../../arm-none-eabi/lib\libc.a(lib_a-lock.o)
 .text.__retarget_lock_close
                0x00000000        0x4 c:/projects/ultra700/gcc/bin/../lib/gcc/arm-none-eabi/9.3.1/../../../../arm-none-eabi/lib\libc.a(lib_a-lock.o)
 .text.__retarget_lock_acquire
                0x00000000        0x4 c:/projects/ultra700/gcc/bin/../lib/gcc/arm-none-eabi/9.3.1/../../../../arm-none-eabi/lib\libc.a(lib_a-lock.o)
 .text.__retarget_lock_try_acquire
                0x00000000        0x8 c:/projects/ultra700/gcc/bin/../lib/gcc/arm-none-eabi/9.3.1/../../../../arm-none-eabi/lib\libc.a(lib_a-lock.o)
 .text.__retarget_lock_try_acquire_recursive
                0x00000000        0x8 c:/projects/ultra700/gcc/bin/../lib/gcc/arm-none-eabi/9.3.1/../../../../arm-none-eabi/lib\libc.a(lib_a-lock.o)
 .text.__retarget_lock_release
                0x00000000        0x4 c:/projects/ultra700/gcc/bin/../lib/gcc/arm-none-eabi/9.3.1/../../../../arm-none-eabi/lib\libc.a(lib_a-lock.o)
 .text          0x00000000        0x0 c:/projects/ultra700/gcc/bin/../lib/gcc/arm-none-eabi/9.3.1/../../../../arm-none-eabi/lib\libc.a(lib_a-mallocr.o)
 .bss           0x00000000        0x0 c:/projects/ultra700/gcc/bin/../lib/gcc/arm-none-eabi/9.3.1/../../../../arm-none-eabi/lib\libc.a(lib_a-mallocr.o)
 .text          0x00000000        0x0 c:/projects/ultra700/gcc/bin/../lib/gcc/arm-none-eabi/9.3.1/../../../../arm-none-eabi/lib\libc.a(lib_a-memcmp.o)
 .bss           0x00000000        0x0 c:/projects/ultra700/gcc/bin/../lib/gcc/arm-none-eabi/9.3.1/../../../../arm-none-eabi/lib\libc.a(lib_a-memcmp.o)
 .text.memcmp   0x00000000       0xa4 c:/projects/ultra700/gcc/bin/../lib/gcc/arm-none-eabi/9.3.1/../../../../arm-none-eabi/lib\libc.a(lib_a-memcmp.o)
 .text          0x00000000        0x0 c:/projects/ultra700/gcc/bin/../lib/gcc/arm-none-eabi/9.3.1/../../../../arm-none-eabi/lib\libc.a(lib_a-memcpy-stub.o)
 .bss           0x00000000        0x0 c:/projects/ultra700/gcc/bin/../lib/gcc/arm-none-eabi/9.3.1/../../../../arm-none-eabi/lib\libc.a(lib_a-memcpy-stub.o)
 .text          0x00000000        0x0 c:/projects/ultra700/gcc/bin/../lib/gcc/arm-none-eabi/9.3.1/../../../../arm-none-eabi/lib\libc.a(lib_a-memset.o)
 .bss           0x00000000        0x0 c:/projects/ultra700/gcc/bin/../lib/gcc/arm-none-eabi/9.3.1/../../../../arm-none-eabi/lib\libc.a(lib_a-memset.o)
 .text          0x00000000        0x0 c:/projects/ultra700/gcc/bin/../lib/gcc/arm-none-eabi/9.3.1/../../../../arm-none-eabi/lib\libc.a(lib_a-mlock.o)
 .bss           0x00000000        0x0 c:/projects/ultra700/gcc/bin/../lib/gcc/arm-none-eabi/9.3.1/../../../../arm-none-eabi/lib\libc.a(lib_a-mlock.o)
 .text          0x00000000        0x0 c:/projects/ultra700/gcc/bin/../lib/gcc/arm-none-eabi/9.3.1/../../../../arm-none-eabi/lib\libc.a(lib_a-printf.o)
 .bss           0x00000000        0x0 c:/projects/ultra700/gcc/bin/../lib/gcc/arm-none-eabi/9.3.1/../../../../arm-none-eabi/lib\libc.a(lib_a-printf.o)
 .text._printf_r
                0x00000000       0x30 c:/projects/ultra700/gcc/bin/../lib/gcc/arm-none-eabi/9.3.1/../../../../arm-none-eabi/lib\libc.a(lib_a-printf.o)
 .text          0x00000000        0x0 c:/projects/ultra700/gcc/bin/../lib/gcc/arm-none-eabi/9.3.1/../../../../arm-none-eabi/lib\libc.a(lib_a-sbrkr.o)
 .bss           0x00000000        0x0 c:/projects/ultra700/gcc/bin/../lib/gcc/arm-none-eabi/9.3.1/../../../../arm-none-eabi/lib\libc.a(lib_a-sbrkr.o)
 .text          0x00000000        0x0 c:/projects/ultra700/gcc/bin/../lib/gcc/arm-none-eabi/9.3.1/../../../../arm-none-eabi/lib\libc.a(lib_a-stdio.o)
 .bss           0x00000000        0x0 c:/projects/ultra700/gcc/bin/../lib/gcc/arm-none-eabi/9.3.1/../../../../arm-none-eabi/lib\libc.a(lib_a-stdio.o)
 .text.__seofread
                0x00000000        0x8 c:/projects/ultra700/gcc/bin/../lib/gcc/arm-none-eabi/9.3.1/../../../../arm-none-eabi/lib\libc.a(lib_a-stdio.o)
 .text          0x00000000        0x0 c:/projects/ultra700/gcc/bin/../lib/gcc/arm-none-eabi/9.3.1/../../../../arm-none-eabi/lib\libc.a(lib_a-strlen-stub.o)
 .bss           0x00000000        0x0 c:/projects/ultra700/gcc/bin/../lib/gcc/arm-none-eabi/9.3.1/../../../../arm-none-eabi/lib\libc.a(lib_a-strlen-stub.o)
 .text          0x00000000        0x0 c:/projects/ultra700/gcc/bin/../lib/gcc/arm-none-eabi/9.3.1/../../../../arm-none-eabi/lib\libc.a(lib_a-vfprintf.o)
 .bss           0x00000000        0x0 c:/projects/ultra700/gcc/bin/../lib/gcc/arm-none-eabi/9.3.1/../../../../arm-none-eabi/lib\libc.a(lib_a-vfprintf.o)
 .text.vfprintf
                0x00000000       0x28 c:/projects/ultra700/gcc/bin/../lib/gcc/arm-none-eabi/9.3.1/../../../../arm-none-eabi/lib\libc.a(lib_a-vfprintf.o)
 .text          0x00000000        0x0 c:/projects/ultra700/gcc/bin/../lib/gcc/arm-none-eabi/9.3.1/../../../../arm-none-eabi/lib\libc.a(lib_a-vsnprintf.o)
 .bss           0x00000000        0x0 c:/projects/ultra700/gcc/bin/../lib/gcc/arm-none-eabi/9.3.1/../../../../arm-none-eabi/lib\libc.a(lib_a-vsnprintf.o)
 .text          0x00000000        0x0 c:/projects/ultra700/gcc/bin/../lib/gcc/arm-none-eabi/9.3.1/../../../../arm-none-eabi/lib\libc.a(lib_a-writer.o)
 .bss           0x00000000        0x0 c:/projects/ultra700/gcc/bin/../lib/gcc/arm-none-eabi/9.3.1/../../../../arm-none-eabi/lib\libc.a(lib_a-writer.o)
 .text          0x00000000        0x0 c:/projects/ultra700/gcc/bin/../lib/gcc/arm-none-eabi/9.3.1/../../../../arm-none-eabi/lib\libc.a(lib_a-wsetup.o)
 .bss           0x00000000        0x0 c:/projects/ultra700/gcc/bin/../lib/gcc/arm-none-eabi/9.3.1/../../../../arm-none-eabi/lib\libc.a(lib_a-wsetup.o)
 .text          0x00000000        0x0 c:/projects/ultra700/gcc/bin/../lib/gcc/arm-none-eabi/9.3.1/../../../../arm-none-eabi/lib\libc.a(lib_a-closer.o)
 .bss           0x00000000        0x0 c:/projects/ultra700/gcc/bin/../lib/gcc/arm-none-eabi/9.3.1/../../../../arm-none-eabi/lib\libc.a(lib_a-closer.o)
 .text          0x00000000        0x0 c:/projects/ultra700/gcc/bin/../lib/gcc/arm-none-eabi/9.3.1/../../../../arm-none-eabi/lib\libc.a(lib_a-dtoa.o)
 .bss           0x00000000        0x0 c:/projects/ultra700/gcc/bin/../lib/gcc/arm-none-eabi/9.3.1/../../../../arm-none-eabi/lib\libc.a(lib_a-dtoa.o)
 .text          0x00000000        0x0 c:/projects/ultra700/gcc/bin/../lib/gcc/arm-none-eabi/9.3.1/../../../../arm-none-eabi/lib\libc.a(lib_a-fclose.o)
 .bss           0x00000000        0x0 c:/projects/ultra700/gcc/bin/../lib/gcc/arm-none-eabi/9.3.1/../../../../arm-none-eabi/lib\libc.a(lib_a-fclose.o)
 .text.fclose   0x00000000       0x14 c:/projects/ultra700/gcc/bin/../lib/gcc/arm-none-eabi/9.3.1/../../../../arm-none-eabi/lib\libc.a(lib_a-fclose.o)
 .text          0x00000000        0x0 c:/projects/ultra700/gcc/bin/../lib/gcc/arm-none-eabi/9.3.1/../../../../arm-none-eabi/lib\libc.a(lib_a-localeconv.o)
 .bss           0x00000000        0x0 c:/projects/ultra700/gcc/bin/../lib/gcc/arm-none-eabi/9.3.1/../../../../arm-none-eabi/lib\libc.a(lib_a-localeconv.o)
 .text.__localeconv_l
                0x00000000        0x8 c:/projects/ultra700/gcc/bin/../lib/gcc/arm-none-eabi/9.3.1/../../../../arm-none-eabi/lib\libc.a(lib_a-localeconv.o)
 .text.localeconv
                0x00000000        0xc c:/projects/ultra700/gcc/bin/../lib/gcc/arm-none-eabi/9.3.1/../../../../arm-none-eabi/lib\libc.a(lib_a-localeconv.o)
 .text          0x00000000        0x0 c:/projects/ultra700/gcc/bin/../lib/gcc/arm-none-eabi/9.3.1/../../../../arm-none-eabi/lib\libc.a(lib_a-lseekr.o)
 .bss           0x00000000        0x0 c:/projects/ultra700/gcc/bin/../lib/gcc/arm-none-eabi/9.3.1/../../../../arm-none-eabi/lib\libc.a(lib_a-lseekr.o)
 .text          0x00000000        0x0 c:/projects/ultra700/gcc/bin/../lib/gcc/arm-none-eabi/9.3.1/../../../../arm-none-eabi/lib\libc.a(lib_a-makebuf.o)
 .bss           0x00000000        0x0 c:/projects/ultra700/gcc/bin/../lib/gcc/arm-none-eabi/9.3.1/../../../../arm-none-eabi/lib\libc.a(lib_a-makebuf.o)
 .text          0x00000000        0x0 c:/projects/ultra700/gcc/bin/../lib/gcc/arm-none-eabi/9.3.1/../../../../arm-none-eabi/lib\libc.a(lib_a-memchr-stub.o)
 .bss           0x00000000        0x0 c:/projects/ultra700/gcc/bin/../lib/gcc/arm-none-eabi/9.3.1/../../../../arm-none-eabi/lib\libc.a(lib_a-memchr-stub.o)
 .text          0x00000000        0x0 c:/projects/ultra700/gcc/bin/../lib/gcc/arm-none-eabi/9.3.1/../../../../arm-none-eabi/lib\libc.a(lib_a-mprec.o)
 .bss           0x00000000        0x0 c:/projects/ultra700/gcc/bin/../lib/gcc/arm-none-eabi/9.3.1/../../../../arm-none-eabi/lib\libc.a(lib_a-mprec.o)
 .text.__s2b    0x00000000      0x114 c:/projects/ultra700/gcc/bin/../lib/gcc/arm-none-eabi/9.3.1/../../../../arm-none-eabi/lib\libc.a(lib_a-mprec.o)
 .text.__ulp    0x00000000       0x64 c:/projects/ultra700/gcc/bin/../lib/gcc/arm-none-eabi/9.3.1/../../../../arm-none-eabi/lib\libc.a(lib_a-mprec.o)
 .text.__b2d    0x00000000       0xe0 c:/projects/ultra700/gcc/bin/../lib/gcc/arm-none-eabi/9.3.1/../../../../arm-none-eabi/lib\libc.a(lib_a-mprec.o)
 .text.__ratio  0x00000000       0x84 c:/projects/ultra700/gcc/bin/../lib/gcc/arm-none-eabi/9.3.1/../../../../arm-none-eabi/lib\libc.a(lib_a-mprec.o)
 .text._mprec_log10
                0x00000000       0x5c c:/projects/ultra700/gcc/bin/../lib/gcc/arm-none-eabi/9.3.1/../../../../arm-none-eabi/lib\libc.a(lib_a-mprec.o)
 .text.__copybits
                0x00000000       0x70 c:/projects/ultra700/gcc/bin/../lib/gcc/arm-none-eabi/9.3.1/../../../../arm-none-eabi/lib\libc.a(lib_a-mprec.o)
 .text.__any_on
                0x00000000       0x64 c:/projects/ultra700/gcc/bin/../lib/gcc/arm-none-eabi/9.3.1/../../../../arm-none-eabi/lib\libc.a(lib_a-mprec.o)
 .rodata.__mprec_tinytens
                0x00000000       0x28 c:/projects/ultra700/gcc/bin/../lib/gcc/arm-none-eabi/9.3.1/../../../../arm-none-eabi/lib\libc.a(lib_a-mprec.o)
 .text          0x00000000        0x0 c:/projects/ultra700/gcc/bin/../lib/gcc/arm-none-eabi/9.3.1/../../../../arm-none-eabi/lib\libc.a(lib_a-readr.o)
 .bss           0x00000000        0x0 c:/projects/ultra700/gcc/bin/../lib/gcc/arm-none-eabi/9.3.1/../../../../arm-none-eabi/lib\libc.a(lib_a-readr.o)
 .text          0x00000000        0x0 c:/projects/ultra700/gcc/bin/../lib/gcc/arm-none-eabi/9.3.1/../../../../arm-none-eabi/lib\libc.a(lib_a-reent.o)
 .bss           0x00000000        0x0 c:/projects/ultra700/gcc/bin/../lib/gcc/arm-none-eabi/9.3.1/../../../../arm-none-eabi/lib\libc.a(lib_a-reent.o)
 .text.cleanup_glue
                0x00000000       0x2c c:/projects/ultra700/gcc/bin/../lib/gcc/arm-none-eabi/9.3.1/../../../../arm-none-eabi/lib\libc.a(lib_a-reent.o)
 .text._reclaim_reent
                0x00000000       0xf0 c:/projects/ultra700/gcc/bin/../lib/gcc/arm-none-eabi/9.3.1/../../../../arm-none-eabi/lib\libc.a(lib_a-reent.o)
 .text          0x00000000        0x0 c:/projects/ultra700/gcc/bin/../lib/gcc/arm-none-eabi/9.3.1/../../../../arm-none-eabi/lib\libc.a(lib_a-s_frexp.o)
 .bss           0x00000000        0x0 c:/projects/ultra700/gcc/bin/../lib/gcc/arm-none-eabi/9.3.1/../../../../arm-none-eabi/lib\libc.a(lib_a-s_frexp.o)
 .text          0x00000000        0x0 c:/projects/ultra700/gcc/bin/../lib/gcc/arm-none-eabi/9.3.1/../../../../arm-none-eabi/lib\libc.a(lib_a-strncpy.o)
 .bss           0x00000000        0x0 c:/projects/ultra700/gcc/bin/../lib/gcc/arm-none-eabi/9.3.1/../../../../arm-none-eabi/lib\libc.a(lib_a-strncpy.o)
 .text          0x00000000        0x0 c:/projects/ultra700/gcc/bin/../lib/gcc/arm-none-eabi/9.3.1/../../../../arm-none-eabi/lib\libc.a(lib_a-svfprintf.o)
 .bss           0x00000000        0x0 c:/projects/ultra700/gcc/bin/../lib/gcc/arm-none-eabi/9.3.1/../../../../arm-none-eabi/lib\libc.a(lib_a-svfprintf.o)
 .text          0x00000000        0x0 c:/projects/ultra700/gcc/bin/../lib/gcc/arm-none-eabi/9.3.1/../../../../arm-none-eabi/lib\libc.a(lib_a-vfiprintf.o)
 .bss           0x00000000        0x0 c:/projects/ultra700/gcc/bin/../lib/gcc/arm-none-eabi/9.3.1/../../../../arm-none-eabi/lib\libc.a(lib_a-vfiprintf.o)
 .text.vfiprintf
                0x00000000       0x28 c:/projects/ultra700/gcc/bin/../lib/gcc/arm-none-eabi/9.3.1/../../../../arm-none-eabi/lib\libc.a(lib_a-vfiprintf.o)
 .text          0x00000000        0x0 c:/projects/ultra700/gcc/bin/../lib/gcc/arm-none-eabi/9.3.1/../../../../arm-none-eabi/lib\libc.a(lib_a-assert.o)
 .bss           0x00000000        0x0 c:/projects/ultra700/gcc/bin/../lib/gcc/arm-none-eabi/9.3.1/../../../../arm-none-eabi/lib\libc.a(lib_a-assert.o)
 .text.__assert
                0x00000000       0x10 c:/projects/ultra700/gcc/bin/../lib/gcc/arm-none-eabi/9.3.1/../../../../arm-none-eabi/lib\libc.a(lib_a-assert.o)
 .text          0x00000000        0x0 c:/projects/ultra700/gcc/bin/../lib/gcc/arm-none-eabi/9.3.1/../../../../arm-none-eabi/lib\libc.a(lib_a-callocr.o)
 .bss           0x00000000        0x0 c:/projects/ultra700/gcc/bin/../lib/gcc/arm-none-eabi/9.3.1/../../../../arm-none-eabi/lib\libc.a(lib_a-callocr.o)
 .text          0x00000000        0x0 c:/projects/ultra700/gcc/bin/../lib/gcc/arm-none-eabi/9.3.1/../../../../arm-none-eabi/lib\libc.a(lib_a-fiprintf.o)
 .bss           0x00000000        0x0 c:/projects/ultra700/gcc/bin/../lib/gcc/arm-none-eabi/9.3.1/../../../../arm-none-eabi/lib\libc.a(lib_a-fiprintf.o)
 .text._fiprintf_r
                0x00000000       0x2c c:/projects/ultra700/gcc/bin/../lib/gcc/arm-none-eabi/9.3.1/../../../../arm-none-eabi/lib\libc.a(lib_a-fiprintf.o)
 .text          0x00000000        0x0 c:/projects/ultra700/gcc/bin/../lib/gcc/arm-none-eabi/9.3.1/../../../../arm-none-eabi/lib\libc.a(lib_a-fputwc.o)
 .bss           0x00000000        0x0 c:/projects/ultra700/gcc/bin/../lib/gcc/arm-none-eabi/9.3.1/../../../../arm-none-eabi/lib\libc.a(lib_a-fputwc.o)
 .text.fputwc   0x00000000       0x4c c:/projects/ultra700/gcc/bin/../lib/gcc/arm-none-eabi/9.3.1/../../../../arm-none-eabi/lib\libc.a(lib_a-fputwc.o)
 .text          0x00000000        0x0 c:/projects/ultra700/gcc/bin/../lib/gcc/arm-none-eabi/9.3.1/../../../../arm-none-eabi/lib\libc.a(lib_a-fstatr.o)
 .bss           0x00000000        0x0 c:/projects/ultra700/gcc/bin/../lib/gcc/arm-none-eabi/9.3.1/../../../../arm-none-eabi/lib\libc.a(lib_a-fstatr.o)
 .text          0x00000000        0x0 c:/projects/ultra700/gcc/bin/../lib/gcc/arm-none-eabi/9.3.1/../../../../arm-none-eabi/lib\libc.a(lib_a-fvwrite.o)
 .bss           0x00000000        0x0 c:/projects/ultra700/gcc/bin/../lib/gcc/arm-none-eabi/9.3.1/../../../../arm-none-eabi/lib\libc.a(lib_a-fvwrite.o)
 .text          0x00000000        0x0 c:/projects/ultra700/gcc/bin/../lib/gcc/arm-none-eabi/9.3.1/../../../../arm-none-eabi/lib\libc.a(lib_a-isattyr.o)
 .bss           0x00000000        0x0 c:/projects/ultra700/gcc/bin/../lib/gcc/arm-none-eabi/9.3.1/../../../../arm-none-eabi/lib\libc.a(lib_a-isattyr.o)
 .text          0x00000000        0x0 c:/projects/ultra700/gcc/bin/../lib/gcc/arm-none-eabi/9.3.1/../../../../arm-none-eabi/lib\libc.a(lib_a-locale.o)
 .bss           0x00000000        0x0 c:/projects/ultra700/gcc/bin/../lib/gcc/arm-none-eabi/9.3.1/../../../../arm-none-eabi/lib\libc.a(lib_a-locale.o)
 .text._setlocale_r
                0x00000000       0x68 c:/projects/ultra700/gcc/bin/../lib/gcc/arm-none-eabi/9.3.1/../../../../arm-none-eabi/lib\libc.a(lib_a-locale.o)
 .text.setlocale
                0x00000000       0x18 c:/projects/ultra700/gcc/bin/../lib/gcc/arm-none-eabi/9.3.1/../../../../arm-none-eabi/lib\libc.a(lib_a-locale.o)
 .bss._PathLocale
                0x00000000        0x4 c:/projects/ultra700/gcc/bin/../lib/gcc/arm-none-eabi/9.3.1/../../../../arm-none-eabi/lib\libc.a(lib_a-locale.o)
 .text          0x00000000        0x0 c:/projects/ultra700/gcc/bin/../lib/gcc/arm-none-eabi/9.3.1/../../../../arm-none-eabi/lib\libc.a(lib_a-mbtowc_r.o)
 .bss           0x00000000        0x0 c:/projects/ultra700/gcc/bin/../lib/gcc/arm-none-eabi/9.3.1/../../../../arm-none-eabi/lib\libc.a(lib_a-mbtowc_r.o)
 .text._mbtowc_r
                0x00000000       0x1c c:/projects/ultra700/gcc/bin/../lib/gcc/arm-none-eabi/9.3.1/../../../../arm-none-eabi/lib\libc.a(lib_a-mbtowc_r.o)
 .text          0x00000000        0x0 c:/projects/ultra700/gcc/bin/../lib/gcc/arm-none-eabi/9.3.1/../../../../arm-none-eabi/lib\libc.a(lib_a-memmove.o)
 .bss           0x00000000        0x0 c:/projects/ultra700/gcc/bin/../lib/gcc/arm-none-eabi/9.3.1/../../../../arm-none-eabi/lib\libc.a(lib_a-memmove.o)
 .text          0x00000000        0x0 c:/projects/ultra700/gcc/bin/../lib/gcc/arm-none-eabi/9.3.1/../../../../arm-none-eabi/lib\libc.a(lib_a-reallocr.o)
 .bss           0x00000000        0x0 c:/projects/ultra700/gcc/bin/../lib/gcc/arm-none-eabi/9.3.1/../../../../arm-none-eabi/lib\libc.a(lib_a-reallocr.o)
 .text          0x00000000      0x224 c:/projects/ultra700/gcc/bin/../lib/gcc/arm-none-eabi/9.3.1/../../../../arm-none-eabi/lib\libc.a(lib_a-strcmp.o)
 .bss           0x00000000        0x0 c:/projects/ultra700/gcc/bin/../lib/gcc/arm-none-eabi/9.3.1/../../../../arm-none-eabi/lib\libc.a(lib_a-strcmp.o)
 .text          0x00000000        0x0 c:/projects/ultra700/gcc/bin/../lib/gcc/arm-none-eabi/9.3.1/../../../../arm-none-eabi/lib\libc.a(lib_a-svfiprintf.o)
 .bss           0x00000000        0x0 c:/projects/ultra700/gcc/bin/../lib/gcc/arm-none-eabi/9.3.1/../../../../arm-none-eabi/lib\libc.a(lib_a-svfiprintf.o)
 .rodata._svfiprintf_r.str1.4
                0x00000000       0x2f c:/projects/ultra700/gcc/bin/../lib/gcc/arm-none-eabi/9.3.1/../../../../arm-none-eabi/lib\libc.a(lib_a-svfiprintf.o)
 .text._svfiprintf_r
                0x00000000     0x1114 c:/projects/ultra700/gcc/bin/../lib/gcc/arm-none-eabi/9.3.1/../../../../arm-none-eabi/lib\libc.a(lib_a-svfiprintf.o)
 .rodata.blanks.7314
                0x00000000       0x10 c:/projects/ultra700/gcc/bin/../lib/gcc/arm-none-eabi/9.3.1/../../../../arm-none-eabi/lib\libc.a(lib_a-svfiprintf.o)
 .rodata.zeroes.7315
                0x00000000       0x10 c:/projects/ultra700/gcc/bin/../lib/gcc/arm-none-eabi/9.3.1/../../../../arm-none-eabi/lib\libc.a(lib_a-svfiprintf.o)
 .text          0x00000000        0x0 c:/projects/ultra700/gcc/bin/../lib/gcc/arm-none-eabi/9.3.1/../../../../arm-none-eabi/lib\libc.a(lib_a-wbuf.o)
 .bss           0x00000000        0x0 c:/projects/ultra700/gcc/bin/../lib/gcc/arm-none-eabi/9.3.1/../../../../arm-none-eabi/lib\libc.a(lib_a-wbuf.o)
 .text.__swbuf  0x00000000       0x18 c:/projects/ultra700/gcc/bin/../lib/gcc/arm-none-eabi/9.3.1/../../../../arm-none-eabi/lib\libc.a(lib_a-wbuf.o)
 .text          0x00000000        0x0 c:/projects/ultra700/gcc/bin/../lib/gcc/arm-none-eabi/9.3.1/../../../../arm-none-eabi/lib\libc.a(lib_a-wcrtomb.o)
 .bss           0x00000000        0x0 c:/projects/ultra700/gcc/bin/../lib/gcc/arm-none-eabi/9.3.1/../../../../arm-none-eabi/lib\libc.a(lib_a-wcrtomb.o)
 .text.wcrtomb  0x00000000       0x70 c:/projects/ultra700/gcc/bin/../lib/gcc/arm-none-eabi/9.3.1/../../../../arm-none-eabi/lib\libc.a(lib_a-wcrtomb.o)
 .text          0x00000000        0x0 c:/projects/ultra700/gcc/bin/../lib/gcc/arm-none-eabi/9.3.1/../../../../arm-none-eabi/lib\libc.a(lib_a-wctomb_r.o)
 .bss           0x00000000        0x0 c:/projects/ultra700/gcc/bin/../lib/gcc/arm-none-eabi/9.3.1/../../../../arm-none-eabi/lib\libc.a(lib_a-wctomb_r.o)
 .text._wctomb_r
                0x00000000       0x1c c:/projects/ultra700/gcc/bin/../lib/gcc/arm-none-eabi/9.3.1/../../../../arm-none-eabi/lib\libc.a(lib_a-wctomb_r.o)
 .text          0x00000000        0x0 c:/projects/ultra700/gcc/bin/../lib/gcc/arm-none-eabi/9.3.1/../../../../arm-none-eabi/lib\libc.a(lib_a-abort.o)
 .bss           0x00000000        0x0 c:/projects/ultra700/gcc/bin/../lib/gcc/arm-none-eabi/9.3.1/../../../../arm-none-eabi/lib\libc.a(lib_a-abort.o)
 .text          0x00000000        0x0 c:/projects/ultra700/gcc/bin/../lib/gcc/arm-none-eabi/9.3.1/../../../../arm-none-eabi/lib\libc.a(lib_a-ctype_.o)
 .bss           0x00000000        0x0 c:/projects/ultra700/gcc/bin/../lib/gcc/arm-none-eabi/9.3.1/../../../../arm-none-eabi/lib\libc.a(lib_a-ctype_.o)
 .text          0x00000000        0x0 c:/projects/ultra700/gcc/bin/../lib/gcc/arm-none-eabi/9.3.1/../../../../arm-none-eabi/lib\libc.a(lib_a-signal.o)
 .bss           0x00000000        0x0 c:/projects/ultra700/gcc/bin/../lib/gcc/arm-none-eabi/9.3.1/../../../../arm-none-eabi/lib\libc.a(lib_a-signal.o)
 .text._init_signal_r.part.0
                0x00000000       0x48 c:/projects/ultra700/gcc/bin/../lib/gcc/arm-none-eabi/9.3.1/../../../../arm-none-eabi/lib\libc.a(lib_a-signal.o)
 .text._init_signal_r
                0x00000000       0x18 c:/projects/ultra700/gcc/bin/../lib/gcc/arm-none-eabi/9.3.1/../../../../arm-none-eabi/lib\libc.a(lib_a-signal.o)
 .text._signal_r
                0x00000000       0x58 c:/projects/ultra700/gcc/bin/../lib/gcc/arm-none-eabi/9.3.1/../../../../arm-none-eabi/lib\libc.a(lib_a-signal.o)
 .text.__sigtramp_r
                0x00000000       0x94 c:/projects/ultra700/gcc/bin/../lib/gcc/arm-none-eabi/9.3.1/../../../../arm-none-eabi/lib\libc.a(lib_a-signal.o)
 .text.signal   0x00000000       0x18 c:/projects/ultra700/gcc/bin/../lib/gcc/arm-none-eabi/9.3.1/../../../../arm-none-eabi/lib\libc.a(lib_a-signal.o)
 .text._init_signal
                0x00000000       0x24 c:/projects/ultra700/gcc/bin/../lib/gcc/arm-none-eabi/9.3.1/../../../../arm-none-eabi/lib\libc.a(lib_a-signal.o)
 .text.__sigtramp
                0x00000000       0x14 c:/projects/ultra700/gcc/bin/../lib/gcc/arm-none-eabi/9.3.1/../../../../arm-none-eabi/lib\libc.a(lib_a-signal.o)
 .text          0x00000000        0x0 c:/projects/ultra700/gcc/bin/../lib/gcc/arm-none-eabi/9.3.1/../../../../arm-none-eabi/lib\libc.a(lib_a-signalr.o)
 .bss           0x00000000        0x0 c:/projects/ultra700/gcc/bin/../lib/gcc/arm-none-eabi/9.3.1/../../../../arm-none-eabi/lib\libc.a(lib_a-signalr.o)
 .text          0x00000000      0x290 c:/projects/ultra700/gcc/bin/../lib/gcc/arm-none-eabi/9.3.1\libgcc.a(_arm_muldf3.o)
 .bss           0x00000000        0x0 c:/projects/ultra700/gcc/bin/../lib/gcc/arm-none-eabi/9.3.1\libgcc.a(_arm_muldf3.o)
 .bss           0x00000000        0x0 c:/projects/ultra700/gcc/bin/../lib/gcc/arm-none-eabi/9.3.1\libgcc.a(_udivsi3.o)
 .bss           0x00000000        0x0 c:/projects/ultra700/gcc/bin/../lib/gcc/arm-none-eabi/9.3.1\libgcc.a(_divsi3.o)
 .bss           0x00000000        0x0 c:/projects/ultra700/gcc/bin/../lib/gcc/arm-none-eabi/9.3.1\libgcc.a(_dvmd_tls.o)
 .bss           0x00000000        0x0 c:/projects/ultra700/gcc/bin/../lib/gcc/arm-none-eabi/9.3.1\libgcc.a(_arm_addsubdf3.o)
 .bss           0x00000000        0x0 c:/projects/ultra700/gcc/bin/../lib/gcc/arm-none-eabi/9.3.1\libgcc.a(_arm_muldivdf3.o)
 .bss           0x00000000        0x0 c:/projects/ultra700/gcc/bin/../lib/gcc/arm-none-eabi/9.3.1\libgcc.a(_arm_cmpdf2.o)
 .bss           0x00000000        0x0 c:/projects/ultra700/gcc/bin/../lib/gcc/arm-none-eabi/9.3.1\libgcc.a(_arm_unorddf2.o)
 .bss           0x00000000        0x0 c:/projects/ultra700/gcc/bin/../lib/gcc/arm-none-eabi/9.3.1\libgcc.a(_arm_fixdfsi.o)
 .bss           0x00000000        0x0 c:/projects/ultra700/gcc/bin/../lib/gcc/arm-none-eabi/9.3.1\libgcc.a(_aeabi_uldivmod.o)
 .bss           0x00000000        0x0 c:/projects/ultra700/gcc/bin/../lib/gcc/arm-none-eabi/9.3.1\libgcc.a(_udivmoddi4.o)
 .ARM.extab     0x00000000        0x0 c:/projects/ultra700/gcc/bin/../lib/gcc/arm-none-eabi/9.3.1\libgcc.a(_udivmoddi4.o)
 .bss           0x00000000        0x0 c:/projects/ultra700/gcc/bin/../lib/gcc/arm-none-eabi/9.3.1\libgcc.a(_clzdi2.o)
 .bss           0x00000000        0x0 c:/projects/ultra700/gcc/bin/../lib/gcc/arm-none-eabi/9.3.1\libgcc.a(_clzsi2.o)
 .text          0x00000000        0x0 c:/projects/ultra700/gcc/bin/../lib/gcc/arm-none-eabi/9.3.1/../../../../arm-none-eabi/lib\libnosys.a(close.o)
 .bss           0x00000000        0x0 c:/projects/ultra700/gcc/bin/../lib/gcc/arm-none-eabi/9.3.1/../../../../arm-none-eabi/lib\libnosys.a(close.o)
 .text          0x00000000        0x0 c:/projects/ultra700/gcc/bin/../lib/gcc/arm-none-eabi/9.3.1/../../../../arm-none-eabi/lib\libnosys.a(fstat.o)
 .bss           0x00000000        0x0 c:/projects/ultra700/gcc/bin/../lib/gcc/arm-none-eabi/9.3.1/../../../../arm-none-eabi/lib\libnosys.a(fstat.o)
 .text          0x00000000        0x0 c:/projects/ultra700/gcc/bin/../lib/gcc/arm-none-eabi/9.3.1/../../../../arm-none-eabi/lib\libnosys.a(getpid.o)
 .bss           0x00000000        0x0 c:/projects/ultra700/gcc/bin/../lib/gcc/arm-none-eabi/9.3.1/../../../../arm-none-eabi/lib\libnosys.a(getpid.o)
 .text          0x00000000        0x0 c:/projects/ultra700/gcc/bin/../lib/gcc/arm-none-eabi/9.3.1/../../../../arm-none-eabi/lib\libnosys.a(isatty.o)
 .bss           0x00000000        0x0 c:/projects/ultra700/gcc/bin/../lib/gcc/arm-none-eabi/9.3.1/../../../../arm-none-eabi/lib\libnosys.a(isatty.o)
 .text          0x00000000        0x0 c:/projects/ultra700/gcc/bin/../lib/gcc/arm-none-eabi/9.3.1/../../../../arm-none-eabi/lib\libnosys.a(kill.o)
 .bss           0x00000000        0x0 c:/projects/ultra700/gcc/bin/../lib/gcc/arm-none-eabi/9.3.1/../../../../arm-none-eabi/lib\libnosys.a(kill.o)
 .text          0x00000000        0x0 c:/projects/ultra700/gcc/bin/../lib/gcc/arm-none-eabi/9.3.1/../../../../arm-none-eabi/lib\libnosys.a(lseek.o)
 .bss           0x00000000        0x0 c:/projects/ultra700/gcc/bin/../lib/gcc/arm-none-eabi/9.3.1/../../../../arm-none-eabi/lib\libnosys.a(lseek.o)
 .text          0x00000000        0x0 c:/projects/ultra700/gcc/bin/../lib/gcc/arm-none-eabi/9.3.1/../../../../arm-none-eabi/lib\libnosys.a(read.o)
 .bss           0x00000000        0x0 c:/projects/ultra700/gcc/bin/../lib/gcc/arm-none-eabi/9.3.1/../../../../arm-none-eabi/lib\libnosys.a(read.o)
 .text          0x00000000        0x0 c:/projects/ultra700/gcc/bin/../lib/gcc/arm-none-eabi/9.3.1/../../../../arm-none-eabi/lib\libnosys.a(sbrk.o)
 .bss           0x00000000        0x0 c:/projects/ultra700/gcc/bin/../lib/gcc/arm-none-eabi/9.3.1/../../../../arm-none-eabi/lib\libnosys.a(sbrk.o)
 .text          0x00000000        0x0 c:/projects/ultra700/gcc/bin/../lib/gcc/arm-none-eabi/9.3.1/../../../../arm-none-eabi/lib\libnosys.a(_exit.o)
 .bss           0x00000000        0x0 c:/projects/ultra700/gcc/bin/../lib/gcc/arm-none-eabi/9.3.1/../../../../arm-none-eabi/lib\libnosys.a(_exit.o)
 .text          0x00000000        0x0 C:/Projects/ultra700/src/GUI/Resource/fontlib.a(courier20h.o)
 .bss           0x00000000        0x0 C:/Projects/ultra700/src/GUI/Resource/fontlib.a(courier20h.o)

Memory Configuration

Name             Origin             Length             Attributes
ROM              0x10006000         0x007fa000         xr
RAM              0x00000000         0x00400000         xrw
TCM              0x70000000         0x0000b000         xrw
*default*        0x00000000         0xffffffff

Linker script and memory map

START GROUP
LOAD c:/projects/ultra700/gcc/bin/../lib/gcc/arm-none-eabi/9.3.1/../../../../arm-none-eabi/lib\libc.a
LOAD c:/projects/ultra700/gcc/bin/../lib/gcc/arm-none-eabi/9.3.1\libgcc.a
LOAD c:/projects/ultra700/gcc/bin/../lib/gcc/arm-none-eabi/9.3.1/../../../../arm-none-eabi/lib\libnosys.a
END GROUP
LOAD CMakeFiles/payload.elf.dir/src/startup_MT6261x.S.obj
LOAD CMakeFiles/payload.elf.dir/src/System/DZ09.c.obj
LOAD CMakeFiles/payload.elf.dir/src/Lib/appheader.c.obj
LOAD CMakeFiles/payload.elf.dir/src/System/asmutils.s.obj
LOAD CMakeFiles/payload.elf.dir/src/System/exchandlers.s.obj
LOAD CMakeFiles/payload.elf.dir/src/System/crc.c.obj
LOAD CMakeFiles/payload.elf.dir/src/System/debug.c.obj
LOAD CMakeFiles/payload.elf.dir/src/System/dlist.c.obj
LOAD CMakeFiles/payload.elf.dir/src/System/evmngr.c.obj
LOAD CMakeFiles/payload.elf.dir/src/System/fscache.c.obj
LOAD CMakeFiles/payload.elf.dir/src/System/init.c.obj
LOAD CMakeFiles/payload.elf.dir/src/System/lrtimer.c.obj
LOAD CMakeFiles/payload.elf.dir/src/System/memory.c.obj
LOAD CMakeFiles/payload.elf.dir/src/System/pmngr.c.obj
LOAD CMakeFiles/payload.elf.dir/src/System/resource.c.obj
LOAD CMakeFiles/payload.elf.dir/src/System/ringbuf.c.obj
LOAD CMakeFiles/payload.elf.dir/src/System/sf.c.obj
LOAD CMakeFiles/payload.elf.dir/src/System/tlsf.c.obj
LOAD CMakeFiles/payload.elf.dir/src/System/utils.c.obj
LOAD CMakeFiles/payload.elf.dir/src/Lib/MT6261/Drivers/auxadc.c.obj
LOAD CMakeFiles/payload.elf.dir/src/Lib/MT6261/Drivers/afe.c.obj
LOAD CMakeFiles/payload.elf.dir/src/Lib/MT6261/Drivers/emi.c.obj
LOAD CMakeFiles/payload.elf.dir/src/Lib/MT6261/Drivers/gpio.c.obj
LOAD CMakeFiles/payload.elf.dir/src/Lib/MT6261/Drivers/gpt.c.obj
LOAD CMakeFiles/payload.elf.dir/src/Lib/MT6261/Drivers/lcdif.c.obj
LOAD CMakeFiles/payload.elf.dir/src/Lib/MT6261/Drivers/msdc.c.obj
LOAD CMakeFiles/payload.elf.dir/src/Lib/MT6261/Drivers/nvic.c.obj
LOAD CMakeFiles/payload.elf.dir/src/Lib/MT6261/Drivers/pctl.c.obj
LOAD CMakeFiles/payload.elf.dir/src/Lib/MT6261/Drivers/pll.c.obj
LOAD CMakeFiles/payload.elf.dir/src/Lib/MT6261/Drivers/pmu.c.obj
LOAD CMakeFiles/payload.elf.dir/src/Lib/MT6261/Drivers/pwm.c.obj
LOAD CMakeFiles/payload.elf.dir/src/Lib/MT6261/Drivers/rgu.c.obj
LOAD CMakeFiles/payload.elf.dir/src/Lib/MT6261/Drivers/rtc.c.obj
LOAD CMakeFiles/payload.elf.dir/src/Lib/MT6261/Drivers/sfi.c.obj
LOAD CMakeFiles/payload.elf.dir/src/Lib/MT6261/Drivers/spi.c.obj
LOAD CMakeFiles/payload.elf.dir/src/Lib/MT6261/Drivers/tcmcache.c.obj
LOAD CMakeFiles/payload.elf.dir/src/Lib/MT6261/Drivers/usart.c.obj
LOAD CMakeFiles/payload.elf.dir/src/Lib/MT6261/Drivers/usb.c.obj
LOAD CMakeFiles/payload.elf.dir/src/Lib/MT6261/Drivers/ustimer.c.obj
LOAD CMakeFiles/payload.elf.dir/src/Lib/USB/usb9.c.obj
LOAD CMakeFiles/payload.elf.dir/src/GUI/gdi.c.obj
LOAD CMakeFiles/payload.elf.dir/src/GUI/gdifont.c.obj
LOAD CMakeFiles/payload.elf.dir/src/GUI/gdiutils.c.obj
LOAD CMakeFiles/payload.elf.dir/src/GUI/gui.c.obj
LOAD CMakeFiles/payload.elf.dir/src/GUI/guibutton.c.obj
LOAD CMakeFiles/payload.elf.dir/src/GUI/guilabel.c.obj
LOAD CMakeFiles/payload.elf.dir/src/GUI/guiobject.c.obj
LOAD CMakeFiles/payload.elf.dir/src/GUI/guiwin.c.obj
LOAD CMakeFiles/payload.elf.dir/src/Application/appinit.c.obj
LOAD CMakeFiles/payload.elf.dir/src/Application/audio_note.c.obj
LOAD CMakeFiles/payload.elf.dir/src/Application/Drivers/backlight.c.obj
LOAD CMakeFiles/payload.elf.dir/src/Application/Drivers/delay.c.obj
LOAD CMakeFiles/payload.elf.dir/src/Application/Drivers/dflib.c.obj
LOAD CMakeFiles/payload.elf.dir/src/Application/Drivers/ft6236.c.obj
LOAD CMakeFiles/payload.elf.dir/src/Application/Drivers/ili9341.c.obj
LOAD CMakeFiles/payload.elf.dir/src/Application/Drivers/simple_keypad.c.obj
LOAD CMakeFiles/payload.elf.dir/src/Application/Drivers/single_led.c.obj
LOAD CMakeFiles/payload.elf.dir/src/Application/Drivers/sdcard.c.obj
LOAD CMakeFiles/payload.elf.dir/src/Application/pcm_player.c.obj
LOAD CMakeFiles/payload.elf.dir/src/Application/Drivers/usbdevice_cdc.c.obj
LOAD c:/projects/ultra700/gcc/bin/../lib/gcc/arm-none-eabi/9.3.1/../../../../arm-none-eabi/lib\libc.a
LOAD c:/projects/ultra700/gcc/bin/../lib/gcc/arm-none-eabi/9.3.1\libgcc.a
LOAD c:/projects/ultra700/gcc/bin/../lib/gcc/arm-none-eabi/9.3.1/../../../../arm-none-eabi/lib\libnosys.a
LOAD C:/Projects/ultra700/src/GUI/Resource/fontlib.a
START GROUP
LOAD c:/projects/ultra700/gcc/bin/../lib/gcc/arm-none-eabi/9.3.1\libgcc.a
LOAD c:/projects/ultra700/gcc/bin/../lib/gcc/arm-none-eabi/9.3.1/../../../../arm-none-eabi/lib\libc.a
END GROUP

.text           0x10006000    0x28e74
                0x10006000                __app_header_base = .
 *(.app_header)
 .app_header    0x10006000       0x44 CMakeFiles/payload.elf.dir/src/Lib/appheader.c.obj
                0x10006000                app_header
                0x10006044                __app_header_end = .
 *(.reset_handler)
 .reset_handler
                0x10006044       0x98 CMakeFiles/payload.elf.dir/src/startup_MT6261x.S.obj
                0x10006044                __reset_handler
 *(.text*)
 .text          0x100060dc       0x18 CMakeFiles/payload.elf.dir/src/startup_MT6261x.S.obj
                0x100060dc                __undefined_handler
                0x100060e0                __swi_handler
                0x100060e4                __prefetch_handler
                0x100060e8                __abort_handler
 .text.main     0x100060f4       0x1c CMakeFiles/payload.elf.dir/src/System/DZ09.c.obj
                0x100060f4                main
 .text          0x10006110      0x1a4 CMakeFiles/payload.elf.dir/src/System/asmutils.s.obj
                0x10006110                __enable_interrupts
                0x10006128                __disable_interrupts
                0x10006140                __restore_interrupts
                0x1000615c                __ctz
                0x100061be                __clz
                0x10006230                __get_cpu_freq_ticks
                0x10006264                __freq_loops_cycles
                0x1000626c                __secure_memset
                0x10006290                __is_in_isr_mode
 .text          0x100062b4       0x48 CMakeFiles/payload.elf.dir/src/System/exchandlers.s.obj
                0x100062b4                __nvic_irq_handler
                0x100062d8                __nvic_fiq_handler
 .text.DBG_Initialize
                0x100062fc       0x40 CMakeFiles/payload.elf.dir/src/System/debug.c.obj
                0x100062fc                DBG_Initialize
 .text._write   0x1000633c       0x8c CMakeFiles/payload.elf.dir/src/System/debug.c.obj
                0x1000633c                _write
 .text.DL_ItemByData
                0x100063c8      0x110 CMakeFiles/payload.elf.dir/src/System/dlist.c.obj
 .text.DL_ItemByDataRev
                0x100064d8      0x118 CMakeFiles/payload.elf.dir/src/System/dlist.c.obj
 .text.DL_IndexOfItem
                0x100065f0       0xa8 CMakeFiles/payload.elf.dir/src/System/dlist.c.obj
 .text.DL_ItemByIndex
                0x10006698      0x124 CMakeFiles/payload.elf.dir/src/System/dlist.c.obj
 .text.DL_Create
                0x100067bc       0x48 CMakeFiles/payload.elf.dir/src/System/dlist.c.obj
                0x100067bc                DL_Create
 .text.DL_Delete
                0x10006804      0x128 CMakeFiles/payload.elf.dir/src/System/dlist.c.obj
                0x10006804                DL_Delete
 .text.DL_GetItemsCount
                0x1000692c       0x54 CMakeFiles/payload.elf.dir/src/System/dlist.c.obj
                0x1000692c                DL_GetItemsCount
 .text.DL_GetFirstItem
                0x10006980       0x50 CMakeFiles/payload.elf.dir/src/System/dlist.c.obj
                0x10006980                DL_GetFirstItem
 .text.DL_GetLastItem
                0x100069d0       0x50 CMakeFiles/payload.elf.dir/src/System/dlist.c.obj
                0x100069d0                DL_GetLastItem
 .text.DL_GetPrevItem
                0x10006a20       0x50 CMakeFiles/payload.elf.dir/src/System/dlist.c.obj
                0x10006a20                DL_GetPrevItem
 .text.DL_GetNextItem
                0x10006a70       0x50 CMakeFiles/payload.elf.dir/src/System/dlist.c.obj
                0x10006a70                DL_GetNextItem
 .text.DL_GetItemIndex
                0x10006ac0       0x44 CMakeFiles/payload.elf.dir/src/System/dlist.c.obj
                0x10006ac0                DL_GetItemIndex
 .text.DL_FindItemByData
                0x10006b04       0x4c CMakeFiles/payload.elf.dir/src/System/dlist.c.obj
                0x10006b04                DL_FindItemByData
 .text.DL_FindItemByDataReverse
                0x10006b50       0x4c CMakeFiles/payload.elf.dir/src/System/dlist.c.obj
                0x10006b50                DL_FindItemByDataReverse
 .text.DL_AddItemPtr
                0x10006b9c       0xe4 CMakeFiles/payload.elf.dir/src/System/dlist.c.obj
                0x10006b9c                DL_AddItemPtr
 .text.DL_AddItemAtIndexPtr
                0x10006c80      0x11c CMakeFiles/payload.elf.dir/src/System/dlist.c.obj
                0x10006c80                DL_AddItemAtIndexPtr
 .text.DL_InsertItemBeforePtr
                0x10006d9c       0xe4 CMakeFiles/payload.elf.dir/src/System/dlist.c.obj
                0x10006d9c                DL_InsertItemBeforePtr
 .text.DL_ExcludeItem
                0x10006e80       0xe0 CMakeFiles/payload.elf.dir/src/System/dlist.c.obj
                0x10006e80                DL_ExcludeItem
 .text.DL_DeleteItem
                0x10006f60       0x5c CMakeFiles/payload.elf.dir/src/System/dlist.c.obj
                0x10006f60                DL_DeleteItem
 .text.DL_DeleteLastItem
                0x10006fbc       0xc0 CMakeFiles/payload.elf.dir/src/System/dlist.c.obj
                0x10006fbc                DL_DeleteLastItem
 .text.DL_MoveItemToIndex
                0x1000707c      0x1e8 CMakeFiles/payload.elf.dir/src/System/dlist.c.obj
                0x1000707c                DL_MoveItemToIndex
 .text.EM_GetTopEvent
                0x10007264       0x4c CMakeFiles/payload.elf.dir/src/System/evmngr.c.obj
 .text.EM_Initialize
                0x100072b0       0x50 CMakeFiles/payload.elf.dir/src/System/evmngr.c.obj
                0x100072b0                EM_Initialize
 .text.EM_PostEvent
                0x10007300       0xe8 CMakeFiles/payload.elf.dir/src/System/evmngr.c.obj
                0x10007300                EM_PostEvent
 .text.EM_ProcessEvents
                0x100073e8      0x1a0 CMakeFiles/payload.elf.dir/src/System/evmngr.c.obj
                0x100073e8                EM_ProcessEvents
 .text.Init     0x10007588      0x24c CMakeFiles/payload.elf.dir/src/System/init.c.obj
                0x10007588                Init
 .text.LRT_GPTHandler
                0x100077d4      0x1e8 CMakeFiles/payload.elf.dir/src/System/lrtimer.c.obj
                0x100077d4                LRT_GPTHandler
 .text.LRT_Initialize
                0x100079bc       0xd8 CMakeFiles/payload.elf.dir/src/System/lrtimer.c.obj
                0x100079bc                LRT_Initialize
 .text.LRT_Create
                0x10007a94      0x138 CMakeFiles/payload.elf.dir/src/System/lrtimer.c.obj
                0x10007a94                LRT_Create
 .text.LRT_Destroy
                0x10007bcc       0xd4 CMakeFiles/payload.elf.dir/src/System/lrtimer.c.obj
                0x10007bcc                LRT_Destroy
 .text.LRT_Start
                0x10007ca0       0xb4 CMakeFiles/payload.elf.dir/src/System/lrtimer.c.obj
                0x10007ca0                LRT_Start
 .text.LRT_Stop
                0x10007d54       0x94 CMakeFiles/payload.elf.dir/src/System/lrtimer.c.obj
                0x10007d54                LRT_Stop
 .text.LRT_SetInterval
                0x10007de8       0x94 CMakeFiles/payload.elf.dir/src/System/lrtimer.c.obj
                0x10007de8                LRT_SetInterval
 .text.InitializeMemoryPool
                0x10007e7c       0x48 CMakeFiles/payload.elf.dir/src/System/memory.c.obj
                0x10007e7c                InitializeMemoryPool
 .text.malloc   0x10007ec4       0x3c CMakeFiles/payload.elf.dir/src/System/memory.c.obj
                0x10007ec4                malloc
 .text.free     0x10007f00       0x34 CMakeFiles/payload.elf.dir/src/System/memory.c.obj
                0x10007f00                free
 .text.IsDynamicMemory
                0x10007f34       0x58 CMakeFiles/payload.elf.dir/src/System/memory.c.obj
                0x10007f34                IsDynamicMemory
 .text.GetTotalUsedMemory
                0x10007f8c       0x20 CMakeFiles/payload.elf.dir/src/System/memory.c.obj
                0x10007f8c                GetTotalUsedMemory
 .text.RB_ShiftPointer
                0x10007fac       0xa0 CMakeFiles/payload.elf.dir/src/System/ringbuf.c.obj
 .text.RB_Create
                0x1000804c       0xb8 CMakeFiles/payload.elf.dir/src/System/ringbuf.c.obj
                0x1000804c                RB_Create
 .text.RB_Destroy
                0x10008104       0x94 CMakeFiles/payload.elf.dir/src/System/ringbuf.c.obj
                0x10008104                RB_Destroy
 .text.RB_WriteData
                0x10008198      0x21c CMakeFiles/payload.elf.dir/src/System/ringbuf.c.obj
                0x10008198                RB_WriteData
 .text.RB_GetCurrentDataCount
                0x100083b4       0x54 CMakeFiles/payload.elf.dir/src/System/ringbuf.c.obj
                0x100083b4                RB_GetCurrentDataCount
 .text.RB_FlashBuffer
                0x10008408       0x54 CMakeFiles/payload.elf.dir/src/System/ringbuf.c.obj
                0x10008408                RB_FlashBuffer
 .text.SF_Initialize
                0x1000845c      0x344 CMakeFiles/payload.elf.dir/src/System/sf.c.obj
                0x1000845c                SF_Initialize
 .text.ls_bit   0x100087a0       0x9c CMakeFiles/payload.elf.dir/src/System/tlsf.c.obj
 .text.ms_bit   0x1000883c       0x90 CMakeFiles/payload.elf.dir/src/System/tlsf.c.obj
 .text.set_bit  0x100088cc       0x6c CMakeFiles/payload.elf.dir/src/System/tlsf.c.obj
 .text.clear_bit
                0x10008938       0x70 CMakeFiles/payload.elf.dir/src/System/tlsf.c.obj
 .text.MAPPING_SEARCH
                0x100089a8      0x110 CMakeFiles/payload.elf.dir/src/System/tlsf.c.obj
 .text.MAPPING_INSERT
                0x10008ab8       0xa4 CMakeFiles/payload.elf.dir/src/System/tlsf.c.obj
 .text.FIND_SUITABLE_BLOCK
                0x10008b5c      0x160 CMakeFiles/payload.elf.dir/src/System/tlsf.c.obj
 .text.process_area
                0x10008cbc       0xf0 CMakeFiles/payload.elf.dir/src/System/tlsf.c.obj
 .text.init_memory_pool
                0x10008dac      0x190 CMakeFiles/payload.elf.dir/src/System/tlsf.c.obj
                0x10008dac                init_memory_pool
 .text.get_used_size
                0x10008f3c       0x28 CMakeFiles/payload.elf.dir/src/System/tlsf.c.obj
                0x10008f3c                get_used_size
 .text.destroy_memory_pool
                0x10008f64       0x34 CMakeFiles/payload.elf.dir/src/System/tlsf.c.obj
                0x10008f64                destroy_memory_pool
 .text.tlsf_malloc
                0x10008f98       0x3c CMakeFiles/payload.elf.dir/src/System/tlsf.c.obj
                0x10008f98                tlsf_malloc
 .text.tlsf_free
                0x10008fd4       0x34 CMakeFiles/payload.elf.dir/src/System/tlsf.c.obj
                0x10008fd4                tlsf_free
 .text.malloc_ex
                0x10009008      0x3a8 CMakeFiles/payload.elf.dir/src/System/tlsf.c.obj
                0x10009008                malloc_ex
 .text.free_ex  0x100093b0      0x550 CMakeFiles/payload.elf.dir/src/System/tlsf.c.obj
                0x100093b0                free_ex
 .text.GetCPUFrequency
                0x10009900       0x50 CMakeFiles/payload.elf.dir/src/System/utils.c.obj
                0x10009900                GetCPUFrequency
 .text.AUXADC_WaitBusy
                0x10009950       0x90 CMakeFiles/payload.elf.dir/src/Lib/MT6261/Drivers/auxadc.c.obj
 .text.AUXADC_Enable
                0x100099e0      0x120 CMakeFiles/payload.elf.dir/src/Lib/MT6261/Drivers/auxadc.c.obj
                0x100099e0                AUXADC_Enable
 .text.AUXADC_Disable
                0x10009b00       0xb0 CMakeFiles/payload.elf.dir/src/Lib/MT6261/Drivers/auxadc.c.obj
                0x10009b00                AUXADC_Disable
 .text.AUXADC_MeasureMultiple
                0x10009bb0      0x13c CMakeFiles/payload.elf.dir/src/Lib/MT6261/Drivers/auxadc.c.obj
                0x10009bb0                AUXADC_MeasureMultiple
 .text.AFE_SwitchHSon
                0x10009cec      0x1c0 CMakeFiles/payload.elf.dir/src/Lib/MT6261/Drivers/afe.c.obj
 .text.AFE_DCLKCtrlSeq
                0x10009eac      0x510 CMakeFiles/payload.elf.dir/src/Lib/MT6261/Drivers/afe.c.obj
 .text.AFE_SwitchIntAmp
                0x1000a3bc      0x350 CMakeFiles/payload.elf.dir/src/Lib/MT6261/Drivers/afe.c.obj
 .text.AFE_ChipInitialization
                0x1000a70c      0x148 CMakeFiles/payload.elf.dir/src/Lib/MT6261/Drivers/afe.c.obj
 .text.AFE_SetSpeakerVolume
                0x1000a854       0x84 CMakeFiles/payload.elf.dir/src/Lib/MT6261/Drivers/afe.c.obj
                0x1000a854                AFE_SetSpeakerVolume
 .text.AFE_TurnOnSpeaker
                0x1000a8d8       0x80 CMakeFiles/payload.elf.dir/src/Lib/MT6261/Drivers/afe.c.obj
                0x1000a8d8                AFE_TurnOnSpeaker
 .text.AFE_SetAudioSampleRate
                0x1000a958       0xd8 CMakeFiles/payload.elf.dir/src/Lib/MT6261/Drivers/afe.c.obj
                0x1000a958                AFE_SetAudioSampleRate
 .text.AFE_initialize
                0x1000aa30       0x64 CMakeFiles/payload.elf.dir/src/Lib/MT6261/Drivers/afe.c.obj
                0x1000aa30                AFE_initialize
 .text.Beep     0x1000aa94       0x58 CMakeFiles/payload.elf.dir/src/Lib/MT6261/Drivers/afe.c.obj
                0x1000aa94                Beep
 .text.AFE_Unmute
                0x1000aaec       0xb8 CMakeFiles/payload.elf.dir/src/Lib/MT6261/Drivers/afe.c.obj
                0x1000aaec                AFE_Unmute
 .text.AFE_EnsureOutputPath
                0x1000aba4       0xc0 CMakeFiles/payload.elf.dir/src/Lib/MT6261/Drivers/afe.c.obj
                0x1000aba4                AFE_EnsureOutputPath
 .text.GPIO_Initialize
                0x1000ac64      0x144 CMakeFiles/payload.elf.dir/src/Lib/MT6261/Drivers/gpio.c.obj
                0x1000ac64                GPIO_Initialize
 .text.GPIO_Setup
                0x1000ada8      0x8b0 CMakeFiles/payload.elf.dir/src/Lib/MT6261/Drivers/gpio.c.obj
                0x1000ada8                GPIO_Setup
 .text.GPT_GetStatus
                0x1000b658       0x2c CMakeFiles/payload.elf.dir/src/Lib/MT6261/Drivers/gpt.c.obj
 .text.GPT_PowerUp
                0x1000b684       0xa0 CMakeFiles/payload.elf.dir/src/Lib/MT6261/Drivers/gpt.c.obj
 .text.GPT_PowerDown
                0x1000b724       0xa0 CMakeFiles/payload.elf.dir/src/Lib/MT6261/Drivers/gpt.c.obj
 .text.GPT_IsPoweredUp
                0x1000b7c4       0x1c CMakeFiles/payload.elf.dir/src/Lib/MT6261/Drivers/gpt.c.obj
 .text.GPT_UpdatePowerState
                0x1000b7e0       0x28 CMakeFiles/payload.elf.dir/src/Lib/MT6261/Drivers/gpt.c.obj
 .text.GPT_InterruptHandler
                0x1000b808       0x9c CMakeFiles/payload.elf.dir/src/Lib/MT6261/Drivers/gpt.c.obj
 .text.GPT_RegisterInterrupt
                0x1000b8a4       0x7c CMakeFiles/payload.elf.dir/src/Lib/MT6261/Drivers/gpt.c.obj
 .text.GPT_TryUnregisterInterrupt
                0x1000b920       0xb8 CMakeFiles/payload.elf.dir/src/Lib/MT6261/Drivers/gpt.c.obj
 .text.GPT_InitializeTimers
                0x1000b9d8       0xe0 CMakeFiles/payload.elf.dir/src/Lib/MT6261/Drivers/gpt.c.obj
                0x1000b9d8                GPT_InitializeTimers
 .text.GPT_StartTimer
                0x1000bab8      0x1c8 CMakeFiles/payload.elf.dir/src/Lib/MT6261/Drivers/gpt.c.obj
                0x1000bab8                GPT_StartTimer
 .text.GPT_SetupTimer
                0x1000bc80      0x49c CMakeFiles/payload.elf.dir/src/Lib/MT6261/Drivers/gpt.c.obj
                0x1000bc80                GPT_SetupTimer
 .text.LCDIF_WriteCommand
                0x1000c11c       0x34 CMakeFiles/payload.elf.dir/src/Lib/MT6261/Drivers/lcdif.c.obj
                0x1000c11c                LCDIF_WriteCommand
 .text.LCDIF_WriteData
                0x1000c150       0x34 CMakeFiles/payload.elf.dir/src/Lib/MT6261/Drivers/lcdif.c.obj
                0x1000c150                LCDIF_WriteData
 .text.LCDIF_SetClock
                0x1000c184       0x4c CMakeFiles/payload.elf.dir/src/Lib/MT6261/Drivers/lcdif.c.obj
                0x1000c184                LCDIF_SetClock
 .text.LCDIF_StartLCDTransfer
                0x1000c1d0       0x34 CMakeFiles/payload.elf.dir/src/Lib/MT6261/Drivers/lcdif.c.obj
                0x1000c1d0                LCDIF_StartLCDTransfer
 .text.LCDIF_IsQueueRunning
                0x1000c204       0x44 CMakeFiles/payload.elf.dir/src/Lib/MT6261/Drivers/lcdif.c.obj
                0x1000c204                LCDIF_IsQueueRunning
 .text.LCDIF_DeleteCommandFromQueue
                0x1000c248       0x64 CMakeFiles/payload.elf.dir/src/Lib/MT6261/Drivers/lcdif.c.obj
                0x1000c248                LCDIF_DeleteCommandFromQueue
 .text.LCDIF_GetCommandFromQueue
                0x1000c2ac      0x21c CMakeFiles/payload.elf.dir/src/Lib/MT6261/Drivers/lcdif.c.obj
                0x1000c2ac                LCDIF_GetCommandFromQueue
 .text.LCDIF_RestartQueue
                0x1000c4c8       0x4c CMakeFiles/payload.elf.dir/src/Lib/MT6261/Drivers/lcdif.c.obj
                0x1000c4c8                LCDIF_RestartQueue
 .text.LCDIF_AddCommandToQueue
                0x1000c514      0x138 CMakeFiles/payload.elf.dir/src/Lib/MT6261/Drivers/lcdif.c.obj
                0x1000c514                LCDIF_AddCommandToQueue
 .text.LCDIF_ISR
                0x1000c64c       0x94 CMakeFiles/payload.elf.dir/src/Lib/MT6261/Drivers/lcdif.c.obj
                0x1000c64c                LCDIF_ISR
 .text.LCDIF_RegisterISR
                0x1000c6e0       0x3c CMakeFiles/payload.elf.dir/src/Lib/MT6261/Drivers/lcdif.c.obj
                0x1000c6e0                LCDIF_RegisterISR
 .text.LCDIF_UnregisterISR
                0x1000c71c       0x1c CMakeFiles/payload.elf.dir/src/Lib/MT6261/Drivers/lcdif.c.obj
                0x1000c71c                LCDIF_UnregisterISR
 .text.LCDIF_DisableInterface
                0x1000c738      0x174 CMakeFiles/payload.elf.dir/src/Lib/MT6261/Drivers/lcdif.c.obj
                0x1000c738                LCDIF_DisableInterface
 .text.LCDIF_Initialize
                0x1000c8ac      0x428 CMakeFiles/payload.elf.dir/src/Lib/MT6261/Drivers/lcdif.c.obj
                0x1000c8ac                LCDIF_Initialize
 .text.LCDIF_SetupLayer
                0x1000ccd4      0x528 CMakeFiles/payload.elf.dir/src/Lib/MT6261/Drivers/lcdif.c.obj
                0x1000ccd4                LCDIF_SetupLayer
 .text.LCDIF_SetLayerEnabled
                0x1000d1fc      0x390 CMakeFiles/payload.elf.dir/src/Lib/MT6261/Drivers/lcdif.c.obj
                0x1000d1fc                LCDIF_SetLayerEnabled
 .text.LCDIF_IsLayerInitialized
                0x1000d58c       0x70 CMakeFiles/payload.elf.dir/src/Lib/MT6261/Drivers/lcdif.c.obj
                0x1000d58c                LCDIF_IsLayerInitialized
 .text.LCDIF_UpdateRectangle
                0x1000d5fc       0x78 CMakeFiles/payload.elf.dir/src/Lib/MT6261/Drivers/lcdif.c.obj
                0x1000d5fc                LCDIF_UpdateRectangle
 .text.LCDIF_UpdateRectangleBlocked
                0x1000d674       0x80 CMakeFiles/payload.elf.dir/src/Lib/MT6261/Drivers/lcdif.c.obj
                0x1000d674                LCDIF_UpdateRectangleBlocked
 .text.MSDC_Check_Card_Present
                0x1000d6f4       0x1c CMakeFiles/payload.elf.dir/src/Lib/MT6261/Drivers/msdc.c.obj
                0x1000d6f4                MSDC_Check_Card_Present
 .text.MSDC_Reset
                0x1000d710       0x4c CMakeFiles/payload.elf.dir/src/Lib/MT6261/Drivers/msdc.c.obj
                0x1000d710                MSDC_Reset
 .text.SD_Wait_SDC_STA
                0x1000d75c       0x8c CMakeFiles/payload.elf.dir/src/Lib/MT6261/Drivers/msdc.c.obj
 .text.SD_WaitCmdReady
                0x1000d7e8       0xb0 CMakeFiles/payload.elf.dir/src/Lib/MT6261/Drivers/msdc.c.obj
                0x1000d7e8                SD_WaitCmdReady
 .text.SD_CheckStatus
                0x1000d898       0x70 CMakeFiles/payload.elf.dir/src/Lib/MT6261/Drivers/msdc.c.obj
                0x1000d898                SD_CheckStatus
 .text.SD_Send_Cmd
                0x1000d908       0x94 CMakeFiles/payload.elf.dir/src/Lib/MT6261/Drivers/msdc.c.obj
                0x1000d908                SD_Send_Cmd
 .text.SD_StopTrans
                0x1000d99c       0x9c CMakeFiles/payload.elf.dir/src/Lib/MT6261/Drivers/msdc.c.obj
                0x1000d99c                SD_StopTrans
 .text.SD_ReadBlock
                0x1000da38      0x204 CMakeFiles/payload.elf.dir/src/Lib/MT6261/Drivers/msdc.c.obj
                0x1000da38                SD_ReadBlock
 .text.NVIC_GetIRQStatus2
                0x1000dc3c       0x24 CMakeFiles/payload.elf.dir/src/Lib/MT6261/Drivers/nvic.c.obj
 .text.NVIC_GetFIQStatus2
                0x1000dc60       0x24 CMakeFiles/payload.elf.dir/src/Lib/MT6261/Drivers/nvic.c.obj
 .text.NVIC_GetEINTStatus2
                0x1000dc84       0x28 CMakeFiles/payload.elf.dir/src/Lib/MT6261/Drivers/nvic.c.obj
 .text.NVIC_GetAIRQStatus2
                0x1000dcac       0x2c CMakeFiles/payload.elf.dir/src/Lib/MT6261/Drivers/nvic.c.obj
 .text.NVIC_GetAEINTStatus2
                0x1000dcd8       0x30 CMakeFiles/payload.elf.dir/src/Lib/MT6261/Drivers/nvic.c.obj
 .text.NVIC_SetIRQ_EOI
                0x1000dd08       0x3c CMakeFiles/payload.elf.dir/src/Lib/MT6261/Drivers/nvic.c.obj
 .text.NVIC_SetAIRQ_EOI
                0x1000dd44       0x44 CMakeFiles/payload.elf.dir/src/Lib/MT6261/Drivers/nvic.c.obj
 .text.NVIC_SetEINT_EOI
                0x1000dd88       0x44 CMakeFiles/payload.elf.dir/src/Lib/MT6261/Drivers/nvic.c.obj
 .text.NVIC_SetAEINT_EOI
                0x1000ddcc       0x4c CMakeFiles/payload.elf.dir/src/Lib/MT6261/Drivers/nvic.c.obj
 .text.NVIC_UnmaskIRQ2
                0x1000de18       0xbc CMakeFiles/payload.elf.dir/src/Lib/MT6261/Drivers/nvic.c.obj
 .text.NVIC_MaskIRQ2
                0x1000ded4       0xbc CMakeFiles/payload.elf.dir/src/Lib/MT6261/Drivers/nvic.c.obj
 .text.NVIC_SetIRQSenseEdge
                0x1000df90       0xbc CMakeFiles/payload.elf.dir/src/Lib/MT6261/Drivers/nvic.c.obj
 .text.NVIC_SetIRQSenseLevel
                0x1000e04c       0xbc CMakeFiles/payload.elf.dir/src/Lib/MT6261/Drivers/nvic.c.obj
 .text.NVIC_UnmaskEINT2
                0x1000e108       0x80 CMakeFiles/payload.elf.dir/src/Lib/MT6261/Drivers/nvic.c.obj
 .text.NVIC_MaskEINT2
                0x1000e188       0x80 CMakeFiles/payload.elf.dir/src/Lib/MT6261/Drivers/nvic.c.obj
 .text.NVIC_SetEINTSenseEdge
                0x1000e208       0x80 CMakeFiles/payload.elf.dir/src/Lib/MT6261/Drivers/nvic.c.obj
 .text.NVIC_SetEINTSenseLevel
                0x1000e288       0x80 CMakeFiles/payload.elf.dir/src/Lib/MT6261/Drivers/nvic.c.obj
 .text.NVIC_SetEINTPolarity
                0x1000e308      0x170 CMakeFiles/payload.elf.dir/src/Lib/MT6261/Drivers/nvic.c.obj
 .text.NVIC_EnableEINT_D0Event2
                0x1000e478       0xbc CMakeFiles/payload.elf.dir/src/Lib/MT6261/Drivers/nvic.c.obj
 .text.NVIC_DisableEINT_D0Event2
                0x1000e534       0xcc CMakeFiles/payload.elf.dir/src/Lib/MT6261/Drivers/nvic.c.obj
 .text.NVIC_SetEINTDebounce
                0x1000e600      0x234 CMakeFiles/payload.elf.dir/src/Lib/MT6261/Drivers/nvic.c.obj
 .text.NVIC_ChangeInterruptMode
                0x1000e834      0x1f4 CMakeFiles/payload.elf.dir/src/Lib/MT6261/Drivers/nvic.c.obj
                0x1000e834                NVIC_ChangeInterruptMode
 .text.NVIC_C_IRQ_Handler
                0x1000ea28       0x9c CMakeFiles/payload.elf.dir/src/Lib/MT6261/Drivers/nvic.c.obj
                0x1000ea28                NVIC_C_IRQ_Handler
 .text.NVIC_C_FIQ_Handler
                0x1000eac4       0x9c CMakeFiles/payload.elf.dir/src/Lib/MT6261/Drivers/nvic.c.obj
                0x1000eac4                NVIC_C_FIQ_Handler
 .text.NVIC_ADIE_C_IRQ_Handler
                0x1000eb60       0x9c CMakeFiles/payload.elf.dir/src/Lib/MT6261/Drivers/nvic.c.obj
                0x1000eb60                NVIC_ADIE_C_IRQ_Handler
 .text.NVIC_EINTCHandler
                0x1000ebfc       0x88 CMakeFiles/payload.elf.dir/src/Lib/MT6261/Drivers/nvic.c.obj
                0x1000ebfc                NVIC_EINTCHandler
 .text.NVIC_AEINTCHandler
                0x1000ec84       0x88 CMakeFiles/payload.elf.dir/src/Lib/MT6261/Drivers/nvic.c.obj
                0x1000ec84                NVIC_AEINTCHandler
 .text.NVIC_Initialize
                0x1000ed0c      0x394 CMakeFiles/payload.elf.dir/src/Lib/MT6261/Drivers/nvic.c.obj
                0x1000ed0c                NVIC_Initialize
 .text.NVIC_RegisterIRQ
                0x1000f0a0      0x190 CMakeFiles/payload.elf.dir/src/Lib/MT6261/Drivers/nvic.c.obj
                0x1000f0a0                NVIC_RegisterIRQ
 .text.NVIC_UnregisterIRQ
                0x1000f230       0xb0 CMakeFiles/payload.elf.dir/src/Lib/MT6261/Drivers/nvic.c.obj
                0x1000f230                NVIC_UnregisterIRQ
 .text.NVIC_RegisterEINT
                0x1000f2e0      0x270 CMakeFiles/payload.elf.dir/src/Lib/MT6261/Drivers/nvic.c.obj
                0x1000f2e0                NVIC_RegisterEINT
 .text.NVIC_UnregisterEINT
                0x1000f550       0xbc CMakeFiles/payload.elf.dir/src/Lib/MT6261/Drivers/nvic.c.obj
                0x1000f550                NVIC_UnregisterEINT
 .text.NVIC_EnableEINT
                0x1000f60c       0x54 CMakeFiles/payload.elf.dir/src/Lib/MT6261/Drivers/nvic.c.obj
                0x1000f60c                NVIC_EnableEINT
 .text.NVIC_EnableIRQ
                0x1000f660       0x64 CMakeFiles/payload.elf.dir/src/Lib/MT6261/Drivers/nvic.c.obj
                0x1000f660                NVIC_EnableIRQ
 .text.NVIC_DisableIRQ
                0x1000f6c4       0x64 CMakeFiles/payload.elf.dir/src/Lib/MT6261/Drivers/nvic.c.obj
                0x1000f6c4                NVIC_DisableIRQ
 .text.PCTL_Initialize
                0x1000f728       0xf4 CMakeFiles/payload.elf.dir/src/Lib/MT6261/Drivers/pctl.c.obj
                0x1000f728                PCTL_Initialize
 .text.PCTL_GetPeripheralPowerStatus
                0x1000f81c       0xc4 CMakeFiles/payload.elf.dir/src/Lib/MT6261/Drivers/pctl.c.obj
                0x1000f81c                PCTL_GetPeripheralPowerStatus
 .text.PMU_GetChargingParams
                0x1000f8e0       0x80 CMakeFiles/payload.elf.dir/src/Lib/MT6261/Drivers/pmu.c.obj
 .text.PMU_IsChargerEnabled
                0x1000f960       0x40 CMakeFiles/payload.elf.dir/src/Lib/MT6261/Drivers/pmu.c.obj
 .text.PMU_ChargerEnable
                0x1000f9a0      0x294 CMakeFiles/payload.elf.dir/src/Lib/MT6261/Drivers/pmu.c.obj
 .text.PMU_FilterADCMeasures
                0x1000fc34      0x1d4 CMakeFiles/payload.elf.dir/src/Lib/MT6261/Drivers/pmu.c.obj
 .text.PMU_MeasureChargeParams
                0x1000fe08      0x33c CMakeFiles/payload.elf.dir/src/Lib/MT6261/Drivers/pmu.c.obj
 .text.PMU_ChargerTimerHandler
                0x10010144      0x32c CMakeFiles/payload.elf.dir/src/Lib/MT6261/Drivers/pmu.c.obj
 .text.PMU_InterruptHandler
                0x10010470       0x34 CMakeFiles/payload.elf.dir/src/Lib/MT6261/Drivers/pmu.c.obj
 .text.PMU_PWRKeyInterruptHandler
                0x100104a4       0x3c CMakeFiles/payload.elf.dir/src/Lib/MT6261/Drivers/pmu.c.obj
 .text.PMU_IsPowerKeyPressed
                0x100104e0       0x48 CMakeFiles/payload.elf.dir/src/Lib/MT6261/Drivers/pmu.c.obj
                0x100104e0                PMU_IsPowerKeyPressed
 .text.PMU_SetPWRKEYLongPressFunction
                0x10010528      0x1b8 CMakeFiles/payload.elf.dir/src/Lib/MT6261/Drivers/pmu.c.obj
                0x10010528                PMU_SetPWRKEYLongPressFunction
 .text.PMU_SetChargerWDTEnabled
                0x100106e0       0xec CMakeFiles/payload.elf.dir/src/Lib/MT6261/Drivers/pmu.c.obj
                0x100106e0                PMU_SetChargerWDTEnabled
 .text.PMU_IsChargerConnected
                0x100107cc       0x40 CMakeFiles/payload.elf.dir/src/Lib/MT6261/Drivers/pmu.c.obj
                0x100107cc                PMU_IsChargerConnected
 .text.PMU_DisableUSBDLMode
                0x1001080c       0x88 CMakeFiles/payload.elf.dir/src/Lib/MT6261/Drivers/pmu.c.obj
                0x1001080c                PMU_DisableUSBDLMode
 .text.PMU_DisableISINKs
                0x10010894       0x28 CMakeFiles/payload.elf.dir/src/Lib/MT6261/Drivers/pmu.c.obj
                0x10010894                PMU_DisableISINKs
 .text.PMU_SetISINKMode
                0x100108bc       0x50 CMakeFiles/payload.elf.dir/src/Lib/MT6261/Drivers/pmu.c.obj
                0x100108bc                PMU_SetISINKMode
 .text.PMU_SetISINKOutput
                0x1001090c       0xe4 CMakeFiles/payload.elf.dir/src/Lib/MT6261/Drivers/pmu.c.obj
                0x1001090c                PMU_SetISINKOutput
 .text.PMU_SetISINKParameters
                0x100109f0      0x1a4 CMakeFiles/payload.elf.dir/src/Lib/MT6261/Drivers/pmu.c.obj
                0x100109f0                PMU_SetISINKParameters
 .text.PMU_TurnOnVUSB
                0x10010b94       0x80 CMakeFiles/payload.elf.dir/src/Lib/MT6261/Drivers/pmu.c.obj
                0x10010b94                PMU_TurnOnVUSB
 .text.PMU_Initialize
                0x10010c14      0x2dc CMakeFiles/payload.elf.dir/src/Lib/MT6261/Drivers/pmu.c.obj
                0x10010c14                PMU_Initialize
 .text.PWM_SetupChannel
                0x10010ef0      0x25c CMakeFiles/payload.elf.dir/src/Lib/MT6261/Drivers/pwm.c.obj
                0x10010ef0                PWM_SetupChannel
 .text.PWM_SetPowerDown
                0x1001114c      0x25c CMakeFiles/payload.elf.dir/src/Lib/MT6261/Drivers/pwm.c.obj
                0x1001114c                PWM_SetPowerDown
 .text.PWM_SetDutyCycle
                0x100113a8      0x1c0 CMakeFiles/payload.elf.dir/src/Lib/MT6261/Drivers/pwm.c.obj
                0x100113a8                PWM_SetDutyCycle
 .text.RGU_RestartWDT
                0x10011568       0x2c CMakeFiles/payload.elf.dir/src/Lib/MT6261/Drivers/rgu.c.obj
                0x10011568                RGU_RestartWDT
 .text.RTC_WaitCBUSY
                0x10011594       0x40 CMakeFiles/payload.elf.dir/src/Lib/MT6261/Drivers/rtc.c.obj
 .text.RTC_UpdateContext
                0x100115d4       0x24 CMakeFiles/payload.elf.dir/src/Lib/MT6261/Drivers/rtc.c.obj
 .text.RTC_Unprotect
                0x100115f8       0x3c CMakeFiles/payload.elf.dir/src/Lib/MT6261/Drivers/rtc.c.obj
 .text.RTC_SetPowerkey
                0x10011634       0x3c CMakeFiles/payload.elf.dir/src/Lib/MT6261/Drivers/rtc.c.obj
 .text.RTC_SetOSC32CON
                0x10011670       0x5c CMakeFiles/payload.elf.dir/src/Lib/MT6261/Drivers/rtc.c.obj
 .text.RTC_DayOfWeek
                0x100116cc      0x150 CMakeFiles/payload.elf.dir/src/Lib/MT6261/Drivers/rtc.c.obj
 .text.RTC_Initialize
                0x1001181c      0x198 CMakeFiles/payload.elf.dir/src/Lib/MT6261/Drivers/rtc.c.obj
                0x1001181c                RTC_Initialize
 .text.RTC_IsValidState
                0x100119b4       0x90 CMakeFiles/payload.elf.dir/src/Lib/MT6261/Drivers/rtc.c.obj
                0x100119b4                RTC_IsValidState
 .text.RTC_SetDateTime
                0x10011a44      0x294 CMakeFiles/payload.elf.dir/src/Lib/MT6261/Drivers/rtc.c.obj
                0x10011a44                RTC_SetDateTime
 .text.RTC_SetAlarmDateTime
                0x10011cd8      0x308 CMakeFiles/payload.elf.dir/src/Lib/MT6261/Drivers/rtc.c.obj
                0x10011cd8                RTC_SetAlarmDateTime
 .text.MPU_Initialize
                0x10011fe0       0xdc CMakeFiles/payload.elf.dir/src/Lib/MT6261/Drivers/tcmcache.c.obj
                0x10011fe0                MPU_Initialize
 .text.MPU_AddRegion
                0x100120bc      0x33c CMakeFiles/payload.elf.dir/src/Lib/MT6261/Drivers/tcmcache.c.obj
                0x100120bc                MPU_AddRegion
 .text.USART_GetPDCode
                0x100123f8       0x60 CMakeFiles/payload.elf.dir/src/Lib/MT6261/Drivers/usart.c.obj
                0x100123f8                USART_GetPDCode
 .text.USART_GetContext
                0x10012458       0x58 CMakeFiles/payload.elf.dir/src/Lib/MT6261/Drivers/usart.c.obj
                0x10012458                USART_GetContext
 .text.USART_Initialize
                0x100124b0      0x43c CMakeFiles/payload.elf.dir/src/Lib/MT6261/Drivers/usart.c.obj
                0x100124b0                USART_Initialize
 .text.USART_EnableInterrupts
                0x100128ec      0x21c CMakeFiles/payload.elf.dir/src/Lib/MT6261/Drivers/usart.c.obj
                0x100128ec                USART_EnableInterrupts
 .text.USART_DisableInterrupts
                0x10012b08      0x21c CMakeFiles/payload.elf.dir/src/Lib/MT6261/Drivers/usart.c.obj
                0x10012b08                USART_DisableInterrupts
 .text.USART_SendBufferPoll
                0x10012d24      0x114 CMakeFiles/payload.elf.dir/src/Lib/MT6261/Drivers/usart.c.obj
                0x10012d24                USART_SendBufferPoll
 .text.USB_EPFIFORead
                0x10012e38       0xd4 CMakeFiles/payload.elf.dir/src/Lib/MT6261/Drivers/usb.c.obj
 .text.USB_EPFIFOWrite
                0x10012f0c       0x8c CMakeFiles/payload.elf.dir/src/Lib/MT6261/Drivers/usb.c.obj
 .text.USB_EP0Handler
                0x10012f98       0xf8 CMakeFiles/payload.elf.dir/src/Lib/MT6261/Drivers/usb.c.obj
 .text.USB_ResetDevice
                0x10013090       0xf4 CMakeFiles/payload.elf.dir/src/Lib/MT6261/Drivers/usb.c.obj
 .text.USB_GetInterruptFlags
                0x10013184       0xf8 CMakeFiles/payload.elf.dir/src/Lib/MT6261/Drivers/usb.c.obj
 .text.USB_EPDefaultHandler
                0x1001327c       0xf4 CMakeFiles/payload.elf.dir/src/Lib/MT6261/Drivers/usb.c.obj
 .text.USB_InterruptHandler
                0x10013370      0x2e0 CMakeFiles/payload.elf.dir/src/Lib/MT6261/Drivers/usb.c.obj
 .text.USB_Initialize
                0x10013650       0x74 CMakeFiles/payload.elf.dir/src/Lib/MT6261/Drivers/usb.c.obj
                0x10013650                USB_Initialize
 .text.USB_EnableDevice
                0x100136c4      0x13c CMakeFiles/payload.elf.dir/src/Lib/MT6261/Drivers/usb.c.obj
                0x100136c4                USB_EnableDevice
 .text.USB_DisableDevice
                0x10013800      0x140 CMakeFiles/payload.elf.dir/src/Lib/MT6261/Drivers/usb.c.obj
                0x10013800                USB_DisableDevice
 .text.USB_OnCableDisconnect
                0x10013940       0x24 CMakeFiles/payload.elf.dir/src/Lib/MT6261/Drivers/usb.c.obj
                0x10013940                USB_OnCableDisconnect
 .text.USB_SetDeviceAddress
                0x10013964       0x38 CMakeFiles/payload.elf.dir/src/Lib/MT6261/Drivers/usb.c.obj
                0x10013964                USB_SetDeviceAddress
 .text.USB_SetDeviceState
                0x1001399c       0x94 CMakeFiles/payload.elf.dir/src/Lib/MT6261/Drivers/usb.c.obj
                0x1001399c                USB_SetDeviceState
 .text.USB_GetDeviceState
                0x10013a30       0x24 CMakeFiles/payload.elf.dir/src/Lib/MT6261/Drivers/usb.c.obj
                0x10013a30                USB_GetDeviceState
 .text.USB_IsDeviceActive
                0x10013a54       0x34 CMakeFiles/payload.elf.dir/src/Lib/MT6261/Drivers/usb.c.obj
                0x10013a54                USB_IsDeviceActive
 .text.USB_SetupEndpoint
                0x10013a88      0x2c4 CMakeFiles/payload.elf.dir/src/Lib/MT6261/Drivers/usb.c.obj
                0x10013a88                USB_SetupEndpoint
 .text.USB_SetEndpointEnabled
                0x10013d4c      0x348 CMakeFiles/payload.elf.dir/src/Lib/MT6261/Drivers/usb.c.obj
                0x10013d4c                USB_SetEndpointEnabled
 .text.USB_GetOUTDataLength
                0x10014094      0x104 CMakeFiles/payload.elf.dir/src/Lib/MT6261/Drivers/usb.c.obj
                0x10014094                USB_GetOUTDataLength
 .text.USB_UpdateEPState
                0x10014198      0x1e0 CMakeFiles/payload.elf.dir/src/Lib/MT6261/Drivers/usb.c.obj
                0x10014198                USB_UpdateEPState
 .text.USB_ControlEPStall
                0x10014378      0x3d0 CMakeFiles/payload.elf.dir/src/Lib/MT6261/Drivers/usb.c.obj
                0x10014378                USB_ControlEPStall
 .text.USB_PrepareDataReceive
                0x10014748      0x140 CMakeFiles/payload.elf.dir/src/Lib/MT6261/Drivers/usb.c.obj
                0x10014748                USB_PrepareDataReceive
 .text.USB_DataReceive
                0x10014888      0x1fc CMakeFiles/payload.elf.dir/src/Lib/MT6261/Drivers/usb.c.obj
                0x10014888                USB_DataReceive
 .text.USB_PrepareDataTransmit
                0x10014a84      0x13c CMakeFiles/payload.elf.dir/src/Lib/MT6261/Drivers/usb.c.obj
                0x10014a84                USB_PrepareDataTransmit
 .text.USB_DataTransmit
                0x10014bc0      0x164 CMakeFiles/payload.elf.dir/src/Lib/MT6261/Drivers/usb.c.obj
                0x10014bc0                USB_DataTransmit
 .text.USB_GetDataAmount
                0x10014d24      0x138 CMakeFiles/payload.elf.dir/src/Lib/MT6261/Drivers/usb.c.obj
                0x10014d24                USB_GetDataAmount
 .text.USB_GetEPStage
                0x10014e5c       0x74 CMakeFiles/payload.elf.dir/src/Lib/MT6261/Drivers/usb.c.obj
                0x10014e5c                USB_GetEPStage
 .text.USB_SetEPStage
                0x10014ed0       0x8c CMakeFiles/payload.elf.dir/src/Lib/MT6261/Drivers/usb.c.obj
                0x10014ed0                USB_SetEPStage
 .text.USC_StartCounter
                0x10014f5c       0x2c CMakeFiles/payload.elf.dir/src/Lib/MT6261/Drivers/ustimer.c.obj
                0x10014f5c                USC_StartCounter
 .text.USC_GetCurrentTicks
                0x10014f88       0x24 CMakeFiles/payload.elf.dir/src/Lib/MT6261/Drivers/ustimer.c.obj
                0x10014f88                USC_GetCurrentTicks
 .text.USC_Pause_us
                0x10014fac       0x60 CMakeFiles/payload.elf.dir/src/Lib/MT6261/Drivers/ustimer.c.obj
                0x10014fac                USC_Pause_us
 .text.USB9_GetDescriptor
                0x1001500c      0x1fc CMakeFiles/payload.elf.dir/src/Lib/USB/usb9.c.obj
 .text.USB9_ClearFeature
                0x10015208      0x108 CMakeFiles/payload.elf.dir/src/Lib/USB/usb9.c.obj
 .text.USB9_SetFeature
                0x10015310      0x108 CMakeFiles/payload.elf.dir/src/Lib/USB/usb9.c.obj
 .text.USB9_GetStatus
                0x10015418      0x198 CMakeFiles/payload.elf.dir/src/Lib/USB/usb9.c.obj
 .text.USB9_HandleStdRequest
                0x100155b0      0x314 CMakeFiles/payload.elf.dir/src/Lib/USB/usb9.c.obj
 .text.USB9_HandleSetupRequest
                0x100158c4       0xfc CMakeFiles/payload.elf.dir/src/Lib/USB/usb9.c.obj
                0x100158c4                USB9_HandleSetupRequest
 .text.USB9_InterfaceInitialize
                0x100159c0       0x3c CMakeFiles/payload.elf.dir/src/Lib/USB/usb9.c.obj
                0x100159c0                USB9_InterfaceInitialize
 .text.GDI_FillRectangle
                0x100159fc       0xcc CMakeFiles/payload.elf.dir/src/GUI/gdi.c.obj
                0x100159fc                GDI_FillRectangle
 .text.GDI_DrawFrame
                0x10015ac8      0x310 CMakeFiles/payload.elf.dir/src/GUI/gdi.c.obj
                0x10015ac8                GDI_DrawFrame
 .text.GDI_Draw3DFrame
                0x10015dd8      0x348 CMakeFiles/payload.elf.dir/src/GUI/gdi.c.obj
                0x10015dd8                GDI_Draw3DFrame
 .text.GDI_GetFontCharInfo
                0x10016120       0xcc CMakeFiles/payload.elf.dir/src/GUI/gdifont.c.obj
 .text.GDI_DrawText16
                0x100161ec      0x704 CMakeFiles/payload.elf.dir/src/GUI/gdifont.c.obj
 .text.GDI_DrawText32
                0x100168f0      0x6bc CMakeFiles/payload.elf.dir/src/GUI/gdifont.c.obj
 .text.TextColor
                0x10016fac       0x4c CMakeFiles/payload.elf.dir/src/GUI/gdifont.c.obj
                0x10016fac                TextColor
 .text.Text     0x10016ff8       0x78 CMakeFiles/payload.elf.dir/src/GUI/gdifont.c.obj
                0x10016ff8                Text
 .text.GDI_UpdateTextExtent
                0x10017070       0xec CMakeFiles/payload.elf.dir/src/GUI/gdifont.c.obj
                0x10017070                GDI_UpdateTextExtent
 .text.GDI_GetStringPosByXShift
                0x1001715c      0x15c CMakeFiles/payload.elf.dir/src/GUI/gdifont.c.obj
                0x1001715c                GDI_GetStringPosByXShift
 .text.GDI_DrawText
                0x100172b8      0x1b0 CMakeFiles/payload.elf.dir/src/GUI/gdifont.c.obj
                0x100172b8                GDI_DrawText
 .text.GDI_MergeRectsInRegion
                0x10017468      0x1e4 CMakeFiles/payload.elf.dir/src/GUI/gdiutils.c.obj
 .text.Point    0x1001764c       0x74 CMakeFiles/payload.elf.dir/src/GUI/gdiutils.c.obj
                0x1001764c                Point
 .text.Rect     0x100176c0       0x78 CMakeFiles/payload.elf.dir/src/GUI/gdiutils.c.obj
                0x100176c0                Rect
 .text.IsRectsOverlaps
                0x10017738      0x128 CMakeFiles/payload.elf.dir/src/GUI/gdiutils.c.obj
                0x10017738                IsRectsOverlaps
 .text.IsPointInRect
                0x10017860       0xac CMakeFiles/payload.elf.dir/src/GUI/gdiutils.c.obj
                0x10017860                IsPointInRect
 .text.IsRectCollapsed
                0x1001790c       0x6c CMakeFiles/payload.elf.dir/src/GUI/gdiutils.c.obj
                0x1001790c                IsRectCollapsed
 .text.GDI_CreateRList
                0x10017978       0x44 CMakeFiles/payload.elf.dir/src/GUI/gdiutils.c.obj
                0x10017978                GDI_CreateRList
 .text.GDI_DeleteRList
                0x100179bc       0x28 CMakeFiles/payload.elf.dir/src/GUI/gdiutils.c.obj
                0x100179bc                GDI_DeleteRList
 .text.GDI_GlobalToLocalPt
                0x100179e4      0x104 CMakeFiles/payload.elf.dir/src/GUI/gdiutils.c.obj
                0x100179e4                GDI_GlobalToLocalPt
 .text.GDI_LocalToGlobalRct
                0x10017ae8      0x178 CMakeFiles/payload.elf.dir/src/GUI/gdiutils.c.obj
                0x10017ae8                GDI_LocalToGlobalRct
 .text.GDI_GlobalToLocalRct
                0x10017c60      0x178 CMakeFiles/payload.elf.dir/src/GUI/gdiutils.c.obj
                0x10017c60                GDI_GlobalToLocalRct
 .text.GDI_ScreenToLayerPt
                0x10017dd8      0x184 CMakeFiles/payload.elf.dir/src/GUI/gdiutils.c.obj
                0x10017dd8                GDI_ScreenToLayerPt
 .text.GDI_ANDRectangles
                0x10017f5c      0x16c CMakeFiles/payload.elf.dir/src/GUI/gdiutils.c.obj
                0x10017f5c                GDI_ANDRectangles
 .text.GDI_SUBRectangles
                0x100180c8      0x598 CMakeFiles/payload.elf.dir/src/GUI/gdiutils.c.obj
                0x100180c8                GDI_SUBRectangles
 .text.GDI_SUBRectFromRegion
                0x10018660      0x1c4 CMakeFiles/payload.elf.dir/src/GUI/gdiutils.c.obj
                0x10018660                GDI_SUBRectFromRegion
 .text.GDI_GetPixelPtr
                0x10018824       0x78 CMakeFiles/payload.elf.dir/src/GUI/gdiutils.c.obj
                0x10018824                GDI_GetPixelPtr
 .text.GDI_FillRectangleX
                0x1001889c      0x25c CMakeFiles/payload.elf.dir/src/GUI/gdiutils.c.obj
                0x1001889c                GDI_FillRectangleX
 .text.GUI_IsObjectVisibleAcrossParents
                0x10018af8      0x1b8 CMakeFiles/payload.elf.dir/src/GUI/gui.c.obj
 .text.GUI_SubTopChildObjectsFromRegion
                0x10018cb0      0x100 CMakeFiles/payload.elf.dir/src/GUI/gui.c.obj
 .text.GUI_UpdateObjectByRegion
                0x10018db0      0x184 CMakeFiles/payload.elf.dir/src/GUI/gui.c.obj
 .text.GUI_UpdateChildTree
                0x10018f34      0x164 CMakeFiles/payload.elf.dir/src/GUI/gui.c.obj
 .text.GUI_DestroySingleObject
                0x10019098      0x1d0 CMakeFiles/payload.elf.dir/src/GUI/gui.c.obj
 .text.GUI_DestroyChildTree
                0x10019268       0xf4 CMakeFiles/payload.elf.dir/src/GUI/gui.c.obj
 .text.GUI_SetLockState
                0x1001935c       0x34 CMakeFiles/payload.elf.dir/src/GUI/gui.c.obj
                0x1001935c                GUI_SetLockState
 .text.GUI_Initialize
                0x10019390       0xc8 CMakeFiles/payload.elf.dir/src/GUI/gui.c.obj
                0x10019390                GUI_Initialize
 .text.GUI_Invalidate
                0x10019458      0x188 CMakeFiles/payload.elf.dir/src/GUI/gui.c.obj
                0x10019458                GUI_Invalidate
 .text.GUI_OnPaintHandler
                0x100195e0      0x2ec CMakeFiles/payload.elf.dir/src/GUI/gui.c.obj
                0x100195e0                GUI_OnPaintHandler
 .text.GUI_OnPenPressHandler
                0x100198cc      0x184 CMakeFiles/payload.elf.dir/src/GUI/gui.c.obj
                0x100198cc                GUI_OnPenPressHandler
 .text.GUI_OnPenReleaseHandler
                0x10019a50      0x19c CMakeFiles/payload.elf.dir/src/GUI/gui.c.obj
                0x10019a50                GUI_OnPenReleaseHandler
 .text.GUI_OnPenMoveHandler
                0x10019bec      0x168 CMakeFiles/payload.elf.dir/src/GUI/gui.c.obj
                0x10019bec                GUI_OnPenMoveHandler
 .text.GUI_OnDestroyHandler
                0x10019d54       0x68 CMakeFiles/payload.elf.dir/src/GUI/gui.c.obj
                0x10019d54                GUI_OnDestroyHandler
 .text.GUI_DisableButtonTimer
                0x10019dbc       0x50 CMakeFiles/payload.elf.dir/src/GUI/guibutton.c.obj
 .text.GUI_ButtonTimerHandler
                0x10019e0c       0xc4 CMakeFiles/payload.elf.dir/src/GUI/guibutton.c.obj
 .text.GUI_DrawDefaultButton
                0x10019ed0      0x1f8 CMakeFiles/payload.elf.dir/src/GUI/guibutton.c.obj
                0x10019ed0                GUI_DrawDefaultButton
 .text.GUI_DestroyButton
                0x1001a0c8       0xd0 CMakeFiles/payload.elf.dir/src/GUI/guibutton.c.obj
                0x1001a0c8                GUI_DestroyButton
 .text.GUI_CalcClientAreaButton
                0x1001a198       0xec CMakeFiles/payload.elf.dir/src/GUI/guibutton.c.obj
                0x1001a198                GUI_CalcClientAreaButton
 .text.GUI_SetActiveButton
                0x1001a284       0xe0 CMakeFiles/payload.elf.dir/src/GUI/guibutton.c.obj
                0x1001a284                GUI_SetActiveButton
 .text.GUI_GetActiveButton
                0x1001a364       0x4c CMakeFiles/payload.elf.dir/src/GUI/guibutton.c.obj
                0x1001a364                GUI_GetActiveButton
 .text.GUI_DrawDefaultLabel
                0x1001a3b0      0x1a8 CMakeFiles/payload.elf.dir/src/GUI/guilabel.c.obj
                0x1001a3b0                GUI_DrawDefaultLabel
 .text.GUI_DestroyLabel
                0x1001a558       0xd0 CMakeFiles/payload.elf.dir/src/GUI/guilabel.c.obj
                0x1001a558                GUI_DestroyLabel
 .text.GUI_GetObjectRecursive
                0x1001a628       0xe0 CMakeFiles/payload.elf.dir/src/GUI/guiobject.c.obj
 .text.GUI_UpdateChildTreeInheritance
                0x1001a708      0x14c CMakeFiles/payload.elf.dir/src/GUI/guiobject.c.obj
 .text.GUI_CalculateClientArea
                0x1001a854       0xf4 CMakeFiles/payload.elf.dir/src/GUI/guiobject.c.obj
                0x1001a854                GUI_CalculateClientArea
 .text.GUI_GetObjectFromPoint
                0x1001a948      0x1d4 CMakeFiles/payload.elf.dir/src/GUI/guiobject.c.obj
                0x1001a948                GUI_GetObjectFromPoint
 .text.GUI_SetObjectVisibility
                0x1001ab1c      0x130 CMakeFiles/payload.elf.dir/src/GUI/guiobject.c.obj
                0x1001ab1c                GUI_SetObjectVisibility
 .text.GUI_GetObjectActive
                0x1001ac4c       0x24 CMakeFiles/payload.elf.dir/src/GUI/guiobject.c.obj
                0x1001ac4c                GUI_GetObjectActive
 .text.GUI_SetObjectActive
                0x1001ac70      0x16c CMakeFiles/payload.elf.dir/src/GUI/guiobject.c.obj
                0x1001ac70                GUI_SetObjectActive
 .text.GUI_UpdateActiveState
                0x1001addc      0x110 CMakeFiles/payload.elf.dir/src/GUI/guiobject.c.obj
                0x1001addc                GUI_UpdateActiveState
 .text.GUI_DrawObjectDefault
                0x1001aeec       0x88 CMakeFiles/payload.elf.dir/src/GUI/guiobject.c.obj
                0x1001aeec                GUI_DrawObjectDefault
 .text.GUI_MoveWindowToTop
                0x1001af74      0x110 CMakeFiles/payload.elf.dir/src/GUI/guiwin.c.obj
 .text.GUI_DrawDefaultWindow
                0x1001b084      0x104 CMakeFiles/payload.elf.dir/src/GUI/guiwin.c.obj
                0x1001b084                GUI_DrawDefaultWindow
 .text.GUI_CreateLayer
                0x1001b188      0x210 CMakeFiles/payload.elf.dir/src/GUI/guiwin.c.obj
                0x1001b188                GUI_CreateLayer
 .text.GUI_DestroyWindow
                0x1001b398       0x20 CMakeFiles/payload.elf.dir/src/GUI/guiwin.c.obj
                0x1001b398                GUI_DestroyWindow
 .text.GUI_IsLayerObject
                0x1001b3b8       0x8c CMakeFiles/payload.elf.dir/src/GUI/guiwin.c.obj
                0x1001b3b8                GUI_IsLayerObject
 .text.GUI_IsWindowObject
                0x1001b444       0x4c CMakeFiles/payload.elf.dir/src/GUI/guiwin.c.obj
                0x1001b444                GUI_IsWindowObject
 .text.GUI_MoveWindowTreeToTop
                0x1001b490       0xb8 CMakeFiles/payload.elf.dir/src/GUI/guiwin.c.obj
                0x1001b490                GUI_MoveWindowTreeToTop
 .text.GUI_CalcClientAreaWindow
                0x1001b548      0x118 CMakeFiles/payload.elf.dir/src/GUI/guiwin.c.obj
                0x1001b548                GUI_CalcClientAreaWindow
 .text.RunIntBenchmark
                0x1001b660      0x2e8 CMakeFiles/payload.elf.dir/src/Application/appinit.c.obj
 .text.DrawText_WPressed
                0x1001b948      0x1c8 CMakeFiles/payload.elf.dir/src/Application/appinit.c.obj
 .text.CDC_StatusChangeHandler
                0x1001bb10       0x5c CMakeFiles/payload.elf.dir/src/Application/appinit.c.obj
 .text.CDC_DataReceivedHandler
                0x1001bb6c       0x20 CMakeFiles/payload.elf.dir/src/Application/appinit.c.obj
 .text.CDC_DataTransmittedHandler
                0x1001bb8c       0x20 CMakeFiles/payload.elf.dir/src/Application/appinit.c.obj
 .text.USB_Print
                0x1001bbac       0xac CMakeFiles/payload.elf.dir/src/Application/appinit.c.obj
                0x1001bbac                USB_Print
 .text.USB_Printf
                0x1001bc58       0xac CMakeFiles/payload.elf.dir/src/Application/appinit.c.obj
                0x1001bc58                USB_Printf
 .text.APP_Initialize
                0x1001bd04      0x3b4 CMakeFiles/payload.elf.dir/src/Application/appinit.c.obj
                0x1001bd04                APP_Initialize
 .text.APP_ProcessEvents
                0x1001c0b8      0x2f4 CMakeFiles/payload.elf.dir/src/Application/appinit.c.obj
                0x1001c0b8                APP_ProcessEvents
 .text.play_tone_pcm
                0x1001c3ac      0x1b0 CMakeFiles/payload.elf.dir/src/Application/audio_note.c.obj
 .text.AudioNote_PlayTone
                0x1001c55c       0x30 CMakeFiles/payload.elf.dir/src/Application/audio_note.c.obj
                0x1001c55c                AudioNote_PlayTone
 .text.AudioNote_Initialize
                0x1001c58c       0x38 CMakeFiles/payload.elf.dir/src/Application/audio_note.c.obj
                0x1001c58c                AudioNote_Initialize
 .text.PMUBL_UpdateValues
                0x1001c5c4      0x1a0 CMakeFiles/payload.elf.dir/src/Application/Drivers/backlight.c.obj
 .text.PMUBL_HideTimerHandler
                0x1001c764       0xb0 CMakeFiles/payload.elf.dir/src/Application/Drivers/backlight.c.obj
 .text.PMUBL_Initialize
                0x1001c814       0x7c CMakeFiles/payload.elf.dir/src/Application/Drivers/backlight.c.obj
                0x1001c814                PMUBL_Initialize
 .text.PMUBL_SetBacklightMode
                0x1001c890       0x5c CMakeFiles/payload.elf.dir/src/Application/Drivers/backlight.c.obj
                0x1001c890                PMUBL_SetBacklightMode
 .text.PMUBL_SetupValue
                0x1001c8ec       0xb0 CMakeFiles/payload.elf.dir/src/Application/Drivers/backlight.c.obj
                0x1001c8ec                PMUBL_SetupValue
 .text.PMUBL_TurnOn
                0x1001c99c       0x80 CMakeFiles/payload.elf.dir/src/Application/Drivers/backlight.c.obj
                0x1001c99c                PMUBL_TurnOn
 .text.PMUBL_RestartBacklightTimer
                0x1001ca1c       0x94 CMakeFiles/payload.elf.dir/src/Application/Drivers/backlight.c.obj
                0x1001ca1c                PMUBL_RestartBacklightTimer
 .text.delay_us
                0x1001cab0       0x38 CMakeFiles/payload.elf.dir/src/Application/Drivers/delay.c.obj
                0x1001cab0                delay_us
 .text.delay_ms
                0x1001cae8       0x84 CMakeFiles/payload.elf.dir/src/Application/Drivers/delay.c.obj
                0x1001cae8                delay_ms
 .text.delayMs  0x1001cb6c       0x24 CMakeFiles/payload.elf.dir/src/Application/Drivers/delay.c.obj
                0x1001cb6c                delayMs
 .text.ILI9341_Initialize
                0x1001cb90       0xbc CMakeFiles/payload.elf.dir/src/Application/Drivers/ili9341.c.obj
                0x1001cb90                ILI9341_Initialize
 .text.ILI9341_SleepLCD
                0x1001cc4c       0x20 CMakeFiles/payload.elf.dir/src/Application/Drivers/ili9341.c.obj
                0x1001cc4c                ILI9341_SleepLCD
 .text.ILI9341_SetOutputWindow
                0x1001cc6c      0x288 CMakeFiles/payload.elf.dir/src/Application/Drivers/ili9341.c.obj
                0x1001cc6c                ILI9341_SetOutputWindow
 .text.Keypad_Initialize
                0x1001cef4      0x18c CMakeFiles/payload.elf.dir/src/Application/Drivers/simple_keypad.c.obj
                0x1001cef4                Keypad_Initialize
 .text.Keypad_StartScanning
                0x1001d080       0x68 CMakeFiles/payload.elf.dir/src/Application/Drivers/simple_keypad.c.obj
                0x1001d080                Keypad_StartScanning
 .text.Keypad_TimerHandler
                0x1001d0e8       0x20 CMakeFiles/payload.elf.dir/src/Application/Drivers/simple_keypad.c.obj
 .text.Keypad_Scan
                0x1001d108      0x508 CMakeFiles/payload.elf.dir/src/Application/Drivers/simple_keypad.c.obj
 .text.Keypad_DrawAllBits
                0x1001d610      0x494 CMakeFiles/payload.elf.dir/src/Application/Drivers/simple_keypad.c.obj
 .text.Keypad_GetKeyEvent
                0x1001daa4       0x74 CMakeFiles/payload.elf.dir/src/Application/Drivers/simple_keypad.c.obj
                0x1001daa4                Keypad_GetKeyEvent
 .text.Keypad_GetKeyName
                0x1001db18       0x4c CMakeFiles/payload.elf.dir/src/Application/Drivers/simple_keypad.c.obj
                0x1001db18                Keypad_GetKeyName
 .text.SingleLED_Initialize
                0x1001db64      0x188 CMakeFiles/payload.elf.dir/src/Application/Drivers/single_led.c.obj
                0x1001db64                SingleLED_Initialize
 .text.SingleLED_Set
                0x1001dcec      0x320 CMakeFiles/payload.elf.dir/src/Application/Drivers/single_led.c.obj
                0x1001dcec                SingleLED_Set
 .text.SingleLED_Toggle
                0x1001e00c       0xc4 CMakeFiles/payload.elf.dir/src/Application/Drivers/single_led.c.obj
                0x1001e00c                SingleLED_Toggle
 .text.SDCARD_ReadSectors
                0x1001e0d0       0x88 CMakeFiles/payload.elf.dir/src/Application/Drivers/sdcard.c.obj
                0x1001e0d0                SDCARD_ReadSectors
 .text.AFE_TurnOn8K
                0x1001e158       0xb4 CMakeFiles/payload.elf.dir/src/Application/pcm_player.c.obj
                0x1001e158                AFE_TurnOn8K
 .text.AFE_TurnOff8K
                0x1001e20c       0x70 CMakeFiles/payload.elf.dir/src/Application/pcm_player.c.obj
                0x1001e20c                AFE_TurnOff8K
 .text.gen_sine16
                0x1001e27c       0xf8 CMakeFiles/payload.elf.dir/src/Application/pcm_player.c.obj
 .text.fifo_wait_space
                0x1001e374       0x5c CMakeFiles/payload.elf.dir/src/Application/pcm_player.c.obj
 .text.pcm_hw_enable
                0x1001e3d0       0x8c CMakeFiles/payload.elf.dir/src/Application/pcm_player.c.obj
 .text.pcm_hw_disable
                0x1001e45c       0x30 CMakeFiles/payload.elf.dir/src/Application/pcm_player.c.obj
 .text.PCM_Player_PlayBuffer
                0x1001e48c      0x15c CMakeFiles/payload.elf.dir/src/Application/pcm_player.c.obj
                0x1001e48c                PCM_Player_PlayBuffer
 .text.PCM_Player_PlayTestTone
                0x1001e5e8      0x13c CMakeFiles/payload.elf.dir/src/Application/pcm_player.c.obj
                0x1001e5e8                PCM_Player_PlayTestTone
 .text.PCM_Player_PlaySample
                0x1001e724       0x30 CMakeFiles/payload.elf.dir/src/Application/pcm_player.c.obj
                0x1001e724                PCM_Player_PlaySample
 .text.USB_CDC_GetStringDescriptorCount
                0x1001e754       0x1c CMakeFiles/payload.elf.dir/src/Application/Drivers/usbdevice_cdc.c.obj
 .text.USB_CDC_GetStringDescriptor
                0x1001e770       0x50 CMakeFiles/payload.elf.dir/src/Application/Drivers/usbdevice_cdc.c.obj
 .text.USB_CDC_SetConfiguration
                0x1001e7c0       0x34 CMakeFiles/payload.elf.dir/src/Application/Drivers/usbdevice_cdc.c.obj
 .text.USB_CDC_IntFlashRXBuffer
                0x1001e7f4       0x24 CMakeFiles/payload.elf.dir/src/Application/Drivers/usbdevice_cdc.c.obj
 .text.USB_CDC_IntFlashTXBuffer
                0x1001e818       0x48 CMakeFiles/payload.elf.dir/src/Application/Drivers/usbdevice_cdc.c.obj
 .text.USB_CDC_TXTimeoutHandler
                0x1001e860       0x40 CMakeFiles/payload.elf.dir/src/Application/Drivers/usbdevice_cdc.c.obj
 .text.USB_CDC_RestartTXTimeout
                0x1001e8a0       0x4c CMakeFiles/payload.elf.dir/src/Application/Drivers/usbdevice_cdc.c.obj
 .text.USB_CDC_StopTXTimeout
                0x1001e8ec       0x4c CMakeFiles/payload.elf.dir/src/Application/Drivers/usbdevice_cdc.c.obj
 .text.USB_CDC_SetConnectedStatus
                0x1001e938       0xac CMakeFiles/payload.elf.dir/src/Application/Drivers/usbdevice_cdc.c.obj
 .text.USB_CDC_ConnectHandler
                0x1001e9e4       0x34 CMakeFiles/payload.elf.dir/src/Application/Drivers/usbdevice_cdc.c.obj
 .text.USB_CDC_InterfaceReqHandler
                0x1001ea18      0x170 CMakeFiles/payload.elf.dir/src/Application/Drivers/usbdevice_cdc.c.obj
 .text.USB_CDC_VendorReqHandler
                0x1001eb88      0x12c CMakeFiles/payload.elf.dir/src/Application/Drivers/usbdevice_cdc.c.obj
 .text.USB_CDC_CtlHandler
                0x1001ecb4       0x24 CMakeFiles/payload.elf.dir/src/Application/Drivers/usbdevice_cdc.c.obj
 .text.USB_CDC_WaitTXIdle
                0x1001ecd8       0x9c CMakeFiles/payload.elf.dir/src/Application/Drivers/usbdevice_cdc.c.obj
 .text.USB_CDC_DataHandler
                0x1001ed74      0x1b8 CMakeFiles/payload.elf.dir/src/Application/Drivers/usbdevice_cdc.c.obj
 .text.USB_CDC_Initialize
                0x1001ef2c      0x1c8 CMakeFiles/payload.elf.dir/src/Application/Drivers/usbdevice_cdc.c.obj
                0x1001ef2c                USB_CDC_Initialize
 .text.USB_CDC_Open
                0x1001f0f4      0x164 CMakeFiles/payload.elf.dir/src/Application/Drivers/usbdevice_cdc.c.obj
                0x1001f0f4                USB_CDC_Open
 .text.USB_CDC_Write
                0x1001f258       0xfc CMakeFiles/payload.elf.dir/src/Application/Drivers/usbdevice_cdc.c.obj
                0x1001f258                USB_CDC_Write
 .text.USB_CDC_FlashTXBuffer
                0x1001f354       0x78 CMakeFiles/payload.elf.dir/src/Application/Drivers/usbdevice_cdc.c.obj
                0x1001f354                USB_CDC_FlashTXBuffer
 .text.__sflush_r
                0x1001f3cc      0x248 c:/projects/ultra700/gcc/bin/../lib/gcc/arm-none-eabi/9.3.1/../../../../arm-none-eabi/lib\libc.a(lib_a-fflush.o)
                0x1001f3cc                __sflush_r
 .text._fflush_r
                0x1001f614       0x9c c:/projects/ultra700/gcc/bin/../lib/gcc/arm-none-eabi/9.3.1/../../../../arm-none-eabi/lib\libc.a(lib_a-fflush.o)
                0x1001f614                _fflush_r
 .text.fflush   0x1001f6b0       0x38 c:/projects/ultra700/gcc/bin/../lib/gcc/arm-none-eabi/9.3.1/../../../../arm-none-eabi/lib\libc.a(lib_a-fflush.o)
                0x1001f6b0                fflush
 .text.std      0x1001f6e8       0x84 c:/projects/ultra700/gcc/bin/../lib/gcc/arm-none-eabi/9.3.1/../../../../arm-none-eabi/lib\libc.a(lib_a-findfp.o)
 .text._cleanup_r
                0x1001f76c       0x18 c:/projects/ultra700/gcc/bin/../lib/gcc/arm-none-eabi/9.3.1/../../../../arm-none-eabi/lib\libc.a(lib_a-findfp.o)
                0x1001f76c                _cleanup_r
 .text.__sinit  0x1001f784       0x94 c:/projects/ultra700/gcc/bin/../lib/gcc/arm-none-eabi/9.3.1/../../../../arm-none-eabi/lib\libc.a(lib_a-findfp.o)
                0x1001f784                __sinit
 .text.__sfp_lock_acquire
                0x1001f818       0x18 c:/projects/ultra700/gcc/bin/../lib/gcc/arm-none-eabi/9.3.1/../../../../arm-none-eabi/lib\libc.a(lib_a-findfp.o)
                0x1001f818                __sfp_lock_acquire
 .text.__sfp_lock_release
                0x1001f830       0x18 c:/projects/ultra700/gcc/bin/../lib/gcc/arm-none-eabi/9.3.1/../../../../arm-none-eabi/lib\libc.a(lib_a-findfp.o)
                0x1001f830                __sfp_lock_release
 .text._malloc_trim_r
                0x1001f848      0x100 c:/projects/ultra700/gcc/bin/../lib/gcc/arm-none-eabi/9.3.1/../../../../arm-none-eabi/lib\libc.a(lib_a-freer.o)
                0x1001f848                _malloc_trim_r
 .text._free_r  0x1001f948      0x2ec c:/projects/ultra700/gcc/bin/../lib/gcc/arm-none-eabi/9.3.1/../../../../arm-none-eabi/lib\libc.a(lib_a-freer.o)
                0x1001f948                _free_r
 .text._fwalk_reent
                0x1001fc34       0x78 c:/projects/ultra700/gcc/bin/../lib/gcc/arm-none-eabi/9.3.1/../../../../arm-none-eabi/lib\libc.a(lib_a-fwalk.o)
                0x1001fc34                _fwalk_reent
 .text.__retarget_lock_init_recursive
                0x1001fcac        0x4 c:/projects/ultra700/gcc/bin/../lib/gcc/arm-none-eabi/9.3.1/../../../../arm-none-eabi/lib\libc.a(lib_a-lock.o)
                0x1001fcac                __retarget_lock_init_recursive
 .text.__retarget_lock_close_recursive
                0x1001fcb0        0x4 c:/projects/ultra700/gcc/bin/../lib/gcc/arm-none-eabi/9.3.1/../../../../arm-none-eabi/lib\libc.a(lib_a-lock.o)
                0x1001fcb0                __retarget_lock_close_recursive
 .text.__retarget_lock_acquire_recursive
                0x1001fcb4        0x4 c:/projects/ultra700/gcc/bin/../lib/gcc/arm-none-eabi/9.3.1/../../../../arm-none-eabi/lib\libc.a(lib_a-lock.o)
                0x1001fcb4                __retarget_lock_acquire_recursive
 .text.__retarget_lock_release_recursive
                0x1001fcb8        0x4 c:/projects/ultra700/gcc/bin/../lib/gcc/arm-none-eabi/9.3.1/../../../../arm-none-eabi/lib\libc.a(lib_a-lock.o)
                0x1001fcb8                __retarget_lock_release_recursive
 .text._malloc_r
                0x1001fcbc      0x7d4 c:/projects/ultra700/gcc/bin/../lib/gcc/arm-none-eabi/9.3.1/../../../../arm-none-eabi/lib\libc.a(lib_a-mallocr.o)
                0x1001fcbc                _malloc_r
 .text.memcpy   0x10020490      0x124 c:/projects/ultra700/gcc/bin/../lib/gcc/arm-none-eabi/9.3.1/../../../../arm-none-eabi/lib\libc.a(lib_a-memcpy-stub.o)
                0x10020490                memcpy
 .text.memset   0x100205b4      0x11c c:/projects/ultra700/gcc/bin/../lib/gcc/arm-none-eabi/9.3.1/../../../../arm-none-eabi/lib\libc.a(lib_a-memset.o)
                0x100205b4                memset
 .text.__malloc_lock
                0x100206d0       0x18 c:/projects/ultra700/gcc/bin/../lib/gcc/arm-none-eabi/9.3.1/../../../../arm-none-eabi/lib\libc.a(lib_a-mlock.o)
                0x100206d0                __malloc_lock
 .text.__malloc_unlock
                0x100206e8       0x18 c:/projects/ultra700/gcc/bin/../lib/gcc/arm-none-eabi/9.3.1/../../../../arm-none-eabi/lib\libc.a(lib_a-mlock.o)
                0x100206e8                __malloc_unlock
 .text.printf   0x10020700       0x3c c:/projects/ultra700/gcc/bin/../lib/gcc/arm-none-eabi/9.3.1/../../../../arm-none-eabi/lib\libc.a(lib_a-printf.o)
                0x10020700                printf
 .text._sbrk_r  0x1002073c       0x44 c:/projects/ultra700/gcc/bin/../lib/gcc/arm-none-eabi/9.3.1/../../../../arm-none-eabi/lib\libc.a(lib_a-sbrkr.o)
                0x1002073c                _sbrk_r
 .text.__sread  0x10020780       0x34 c:/projects/ultra700/gcc/bin/../lib/gcc/arm-none-eabi/9.3.1/../../../../arm-none-eabi/lib\libc.a(lib_a-stdio.o)
                0x10020780                __sread
 .text.__swrite
                0x100207b4       0x5c c:/projects/ultra700/gcc/bin/../lib/gcc/arm-none-eabi/9.3.1/../../../../arm-none-eabi/lib\libc.a(lib_a-stdio.o)
                0x100207b4                __swrite
 .text.__sseek  0x10020810       0x30 c:/projects/ultra700/gcc/bin/../lib/gcc/arm-none-eabi/9.3.1/../../../../arm-none-eabi/lib\libc.a(lib_a-stdio.o)
                0x10020810                __sseek
 .text.__sclose
                0x10020840       0x14 c:/projects/ultra700/gcc/bin/../lib/gcc/arm-none-eabi/9.3.1/../../../../arm-none-eabi/lib\libc.a(lib_a-stdio.o)
                0x10020840                __sclose
 .text.strlen   0x10020854       0x60 c:/projects/ultra700/gcc/bin/../lib/gcc/arm-none-eabi/9.3.1/../../../../arm-none-eabi/lib\libc.a(lib_a-strlen-stub.o)
                0x10020854                strlen
 .text._vfprintf_r
                0x100208b4     0x2918 c:/projects/ultra700/gcc/bin/../lib/gcc/arm-none-eabi/9.3.1/../../../../arm-none-eabi/lib\libc.a(lib_a-vfprintf.o)
                0x100208b4                _vfprintf_r
 .text.__sbprintf
                0x100231cc       0xd4 c:/projects/ultra700/gcc/bin/../lib/gcc/arm-none-eabi/9.3.1/../../../../arm-none-eabi/lib\libc.a(lib_a-vfprintf.o)
 .text._vsnprintf_r
                0x100232a0       0xac c:/projects/ultra700/gcc/bin/../lib/gcc/arm-none-eabi/9.3.1/../../../../arm-none-eabi/lib\libc.a(lib_a-vsnprintf.o)
                0x100232a0                _vsnprintf_r
 .text.vsnprintf
                0x1002334c       0x3c c:/projects/ultra700/gcc/bin/../lib/gcc/arm-none-eabi/9.3.1/../../../../arm-none-eabi/lib\libc.a(lib_a-vsnprintf.o)
                0x1002334c                vsnprintf
 .text._write_r
                0x10023388       0x4c c:/projects/ultra700/gcc/bin/../lib/gcc/arm-none-eabi/9.3.1/../../../../arm-none-eabi/lib\libc.a(lib_a-writer.o)
                0x10023388                _write_r
 .text.__swsetup_r
                0x100233d4      0x170 c:/projects/ultra700/gcc/bin/../lib/gcc/arm-none-eabi/9.3.1/../../../../arm-none-eabi/lib\libc.a(lib_a-wsetup.o)
                0x100233d4                __swsetup_r
 .text._close_r
                0x10023544       0x3c c:/projects/ultra700/gcc/bin/../lib/gcc/arm-none-eabi/9.3.1/../../../../arm-none-eabi/lib\libc.a(lib_a-closer.o)
                0x10023544                _close_r
 .text.quorem   0x10023580      0x1c0 c:/projects/ultra700/gcc/bin/../lib/gcc/arm-none-eabi/9.3.1/../../../../arm-none-eabi/lib\libc.a(lib_a-dtoa.o)
 .text._dtoa_r  0x10023740     0x1740 c:/projects/ultra700/gcc/bin/../lib/gcc/arm-none-eabi/9.3.1/../../../../arm-none-eabi/lib\libc.a(lib_a-dtoa.o)
                0x10023740                _dtoa_r
 .text._fclose_r
                0x10024e80      0x16c c:/projects/ultra700/gcc/bin/../lib/gcc/arm-none-eabi/9.3.1/../../../../arm-none-eabi/lib\libc.a(lib_a-fclose.o)
                0x10024e80                _fclose_r
 .text._localeconv_r
                0x10024fec        0xc c:/projects/ultra700/gcc/bin/../lib/gcc/arm-none-eabi/9.3.1/../../../../arm-none-eabi/lib\libc.a(lib_a-localeconv.o)
                0x10024fec                _localeconv_r
 .text._lseek_r
                0x10024ff8       0x4c c:/projects/ultra700/gcc/bin/../lib/gcc/arm-none-eabi/9.3.1/../../../../arm-none-eabi/lib\libc.a(lib_a-lseekr.o)
                0x10024ff8                _lseek_r
 .text.__swhatbuf_r
                0x10025044       0xa0 c:/projects/ultra700/gcc/bin/../lib/gcc/arm-none-eabi/9.3.1/../../../../arm-none-eabi/lib\libc.a(lib_a-makebuf.o)
                0x10025044                __swhatbuf_r
 .text.__smakebuf_r
                0x100250e4      0x100 c:/projects/ultra700/gcc/bin/../lib/gcc/arm-none-eabi/9.3.1/../../../../arm-none-eabi/lib\libc.a(lib_a-makebuf.o)
                0x100250e4                __smakebuf_r
 .text.memchr   0x100251e4       0xf8 c:/projects/ultra700/gcc/bin/../lib/gcc/arm-none-eabi/9.3.1/../../../../arm-none-eabi/lib\libc.a(lib_a-memchr-stub.o)
                0x100251e4                memchr
 .text._Balloc  0x100252dc       0x8c c:/projects/ultra700/gcc/bin/../lib/gcc/arm-none-eabi/9.3.1/../../../../arm-none-eabi/lib\libc.a(lib_a-mprec.o)
                0x100252dc                _Balloc
 .text._Bfree   0x10025368       0x1c c:/projects/ultra700/gcc/bin/../lib/gcc/arm-none-eabi/9.3.1/../../../../arm-none-eabi/lib\libc.a(lib_a-mprec.o)
                0x10025368                _Bfree
 .text.__multadd
                0x10025384      0x100 c:/projects/ultra700/gcc/bin/../lib/gcc/arm-none-eabi/9.3.1/../../../../arm-none-eabi/lib\libc.a(lib_a-mprec.o)
                0x10025384                __multadd
 .text.__hi0bits
                0x10025484       0x58 c:/projects/ultra700/gcc/bin/../lib/gcc/arm-none-eabi/9.3.1/../../../../arm-none-eabi/lib\libc.a(lib_a-mprec.o)
                0x10025484                __hi0bits
 .text.__lo0bits
                0x100254dc       0xa0 c:/projects/ultra700/gcc/bin/../lib/gcc/arm-none-eabi/9.3.1/../../../../arm-none-eabi/lib\libc.a(lib_a-mprec.o)
                0x100254dc                __lo0bits
 .text.__i2b    0x1002557c       0x44 c:/projects/ultra700/gcc/bin/../lib/gcc/arm-none-eabi/9.3.1/../../../../arm-none-eabi/lib\libc.a(lib_a-mprec.o)
                0x1002557c                __i2b
 .text.__multiply
                0x100255c0      0x214 c:/projects/ultra700/gcc/bin/../lib/gcc/arm-none-eabi/9.3.1/../../../../arm-none-eabi/lib\libc.a(lib_a-mprec.o)
                0x100255c0                __multiply
 .text.__pow5mult
                0x100257d4       0xf4 c:/projects/ultra700/gcc/bin/../lib/gcc/arm-none-eabi/9.3.1/../../../../arm-none-eabi/lib\libc.a(lib_a-mprec.o)
                0x100257d4                __pow5mult
 .text.__lshift
                0x100258c8      0x140 c:/projects/ultra700/gcc/bin/../lib/gcc/arm-none-eabi/9.3.1/../../../../arm-none-eabi/lib\libc.a(lib_a-mprec.o)
                0x100258c8                __lshift
 .text.__mcmp   0x10025a08       0x60 c:/projects/ultra700/gcc/bin/../lib/gcc/arm-none-eabi/9.3.1/../../../../arm-none-eabi/lib\libc.a(lib_a-mprec.o)
                0x10025a08                __mcmp
 .text.__mdiff  0x10025a68      0x1f4 c:/projects/ultra700/gcc/bin/../lib/gcc/arm-none-eabi/9.3.1/../../../../arm-none-eabi/lib\libc.a(lib_a-mprec.o)
                0x10025a68                __mdiff
 .text.__d2b    0x10025c5c      0x13c c:/projects/ultra700/gcc/bin/../lib/gcc/arm-none-eabi/9.3.1/../../../../arm-none-eabi/lib\libc.a(lib_a-mprec.o)
                0x10025c5c                __d2b
 .text._read_r  0x10025d98       0x4c c:/projects/ultra700/gcc/bin/../lib/gcc/arm-none-eabi/9.3.1/../../../../arm-none-eabi/lib\libc.a(lib_a-readr.o)
                0x10025d98                _read_r
 .text.frexp    0x10025de4       0xa4 c:/projects/ultra700/gcc/bin/../lib/gcc/arm-none-eabi/9.3.1/../../../../arm-none-eabi/lib\libc.a(lib_a-s_frexp.o)
                0x10025de4                frexp
 .text.strncpy  0x10025e88       0xcc c:/projects/ultra700/gcc/bin/../lib/gcc/arm-none-eabi/9.3.1/../../../../arm-none-eabi/lib\libc.a(lib_a-strncpy.o)
                0x10025e88                strncpy
 .text._svfprintf_r
                0x10025f54     0x27a0 c:/projects/ultra700/gcc/bin/../lib/gcc/arm-none-eabi/9.3.1/../../../../arm-none-eabi/lib\libc.a(lib_a-svfprintf.o)
                0x10025f54                _svfprintf_r
 .text.__sprint_r.part.0
                0x100286f4       0xb0 c:/projects/ultra700/gcc/bin/../lib/gcc/arm-none-eabi/9.3.1/../../../../arm-none-eabi/lib\libc.a(lib_a-vfiprintf.o)
 .text.__sprint_r
                0x100287a4       0x18 c:/projects/ultra700/gcc/bin/../lib/gcc/arm-none-eabi/9.3.1/../../../../arm-none-eabi/lib\libc.a(lib_a-vfiprintf.o)
                0x100287a4                __sprint_r
 .text._vfiprintf_r
                0x100287bc     0x13e0 c:/projects/ultra700/gcc/bin/../lib/gcc/arm-none-eabi/9.3.1/../../../../arm-none-eabi/lib\libc.a(lib_a-vfiprintf.o)
                0x100287bc                _vfiprintf_r
 .text.__sbprintf
                0x10029b9c       0xd4 c:/projects/ultra700/gcc/bin/../lib/gcc/arm-none-eabi/9.3.1/../../../../arm-none-eabi/lib\libc.a(lib_a-vfiprintf.o)
 .text.__assert_func
                0x10029c70       0x54 c:/projects/ultra700/gcc/bin/../lib/gcc/arm-none-eabi/9.3.1/../../../../arm-none-eabi/lib\libc.a(lib_a-assert.o)
                0x10029c70                __assert_func
 .text._calloc_r
                0x10029cc4       0x9c c:/projects/ultra700/gcc/bin/../lib/gcc/arm-none-eabi/9.3.1/../../../../arm-none-eabi/lib\libc.a(lib_a-callocr.o)
                0x10029cc4                _calloc_r
 .text.fiprintf
                0x10029d60       0x3c c:/projects/ultra700/gcc/bin/../lib/gcc/arm-none-eabi/9.3.1/../../../../arm-none-eabi/lib\libc.a(lib_a-fiprintf.o)
                0x10029d60                fiprintf
 .text.__fputwc
                0x10029d9c      0x114 c:/projects/ultra700/gcc/bin/../lib/gcc/arm-none-eabi/9.3.1/../../../../arm-none-eabi/lib\libc.a(lib_a-fputwc.o)
                0x10029d9c                __fputwc
 .text._fputwc_r
                0x10029eb0       0xc0 c:/projects/ultra700/gcc/bin/../lib/gcc/arm-none-eabi/9.3.1/../../../../arm-none-eabi/lib\libc.a(lib_a-fputwc.o)
                0x10029eb0                _fputwc_r
 .text._fstat_r
                0x10029f70       0x44 c:/projects/ultra700/gcc/bin/../lib/gcc/arm-none-eabi/9.3.1/../../../../arm-none-eabi/lib\libc.a(lib_a-fstatr.o)
                0x10029f70                _fstat_r
 .text.__sfvwrite_r
                0x10029fb4      0x4bc c:/projects/ultra700/gcc/bin/../lib/gcc/arm-none-eabi/9.3.1/../../../../arm-none-eabi/lib\libc.a(lib_a-fvwrite.o)
                0x10029fb4                __sfvwrite_r
 .text._isatty_r
                0x1002a470       0x3c c:/projects/ultra700/gcc/bin/../lib/gcc/arm-none-eabi/9.3.1/../../../../arm-none-eabi/lib\libc.a(lib_a-isattyr.o)
                0x1002a470                _isatty_r
 .text.__locale_mb_cur_max
                0x1002a4ac       0x10 c:/projects/ultra700/gcc/bin/../lib/gcc/arm-none-eabi/9.3.1/../../../../arm-none-eabi/lib\libc.a(lib_a-locale.o)
                0x1002a4ac                __locale_mb_cur_max
 .text.__ascii_mbtowc
                0x1002a4bc       0x44 c:/projects/ultra700/gcc/bin/../lib/gcc/arm-none-eabi/9.3.1/../../../../arm-none-eabi/lib\libc.a(lib_a-mbtowc_r.o)
                0x1002a4bc                __ascii_mbtowc
 .text.memmove  0x1002a500      0x158 c:/projects/ultra700/gcc/bin/../lib/gcc/arm-none-eabi/9.3.1/../../../../arm-none-eabi/lib\libc.a(lib_a-memmove.o)
                0x1002a500                memmove
 .text._realloc_r
                0x1002a658      0x594 c:/projects/ultra700/gcc/bin/../lib/gcc/arm-none-eabi/9.3.1/../../../../arm-none-eabi/lib\libc.a(lib_a-reallocr.o)
                0x1002a658                _realloc_r
 .text.__ssprint_r
                0x1002abec      0x1a4 c:/projects/ultra700/gcc/bin/../lib/gcc/arm-none-eabi/9.3.1/../../../../arm-none-eabi/lib\libc.a(lib_a-svfiprintf.o)
                0x1002abec                __ssprint_r
 .text.__swbuf_r
                0x1002ad90      0x134 c:/projects/ultra700/gcc/bin/../lib/gcc/arm-none-eabi/9.3.1/../../../../arm-none-eabi/lib\libc.a(lib_a-wbuf.o)
                0x1002ad90                __swbuf_r
 .text._wcrtomb_r
                0x1002aec4       0x58 c:/projects/ultra700/gcc/bin/../lib/gcc/arm-none-eabi/9.3.1/../../../../arm-none-eabi/lib\libc.a(lib_a-wcrtomb.o)
                0x1002aec4                _wcrtomb_r
 .text.__ascii_wctomb
                0x1002af1c       0x30 c:/projects/ultra700/gcc/bin/../lib/gcc/arm-none-eabi/9.3.1/../../../../arm-none-eabi/lib\libc.a(lib_a-wctomb_r.o)
                0x1002af1c                __ascii_wctomb
 .text.abort    0x1002af4c       0x14 c:/projects/ultra700/gcc/bin/../lib/gcc/arm-none-eabi/9.3.1/../../../../arm-none-eabi/lib\libc.a(lib_a-abort.o)
                0x1002af4c                abort
 .text._raise_r
                0x1002af60       0x98 c:/projects/ultra700/gcc/bin/../lib/gcc/arm-none-eabi/9.3.1/../../../../arm-none-eabi/lib\libc.a(lib_a-signal.o)
                0x1002af60                _raise_r
 .text.raise    0x1002aff8       0x14 c:/projects/ultra700/gcc/bin/../lib/gcc/arm-none-eabi/9.3.1/../../../../arm-none-eabi/lib\libc.a(lib_a-signal.o)
                0x1002aff8                raise
 .text._kill_r  0x1002b00c       0x44 c:/projects/ultra700/gcc/bin/../lib/gcc/arm-none-eabi/9.3.1/../../../../arm-none-eabi/lib\libc.a(lib_a-signalr.o)
                0x1002b00c                _kill_r
 .text._getpid_r
                0x1002b050       0x10 c:/projects/ultra700/gcc/bin/../lib/gcc/arm-none-eabi/9.3.1/../../../../arm-none-eabi/lib\libc.a(lib_a-signalr.o)
                0x1002b050                _getpid_r
 .text          0x1002b060      0x114 c:/projects/ultra700/gcc/bin/../lib/gcc/arm-none-eabi/9.3.1\libgcc.a(_udivsi3.o)
                0x1002b060                __aeabi_uidiv
                0x1002b060                __udivsi3
                0x1002b154                __aeabi_uidivmod
 .text          0x1002b174      0x148 c:/projects/ultra700/gcc/bin/../lib/gcc/arm-none-eabi/9.3.1\libgcc.a(_divsi3.o)
                0x1002b174                __divsi3
                0x1002b174                __aeabi_idiv
                0x1002b29c                __aeabi_idivmod
 .text          0x1002b2bc        0x4 c:/projects/ultra700/gcc/bin/../lib/gcc/arm-none-eabi/9.3.1\libgcc.a(_dvmd_tls.o)
                0x1002b2bc                __aeabi_idiv0
                0x1002b2bc                __aeabi_ldiv0
 .text          0x1002b2c0      0x424 c:/projects/ultra700/gcc/bin/../lib/gcc/arm-none-eabi/9.3.1\libgcc.a(_arm_addsubdf3.o)
                0x1002b2c0                __aeabi_drsub
                0x1002b2c8                __aeabi_dsub
                0x1002b2c8                __subdf3
                0x1002b2cc                __aeabi_dadd
                0x1002b2cc                __adddf3
                0x1002b5dc                __floatunsidf
                0x1002b5dc                __aeabi_ui2d
                0x1002b600                __floatsidf
                0x1002b600                __aeabi_i2d
                0x1002b628                __aeabi_f2d
                0x1002b628                __extendsfdf2
                0x1002b670                __floatundidf
                0x1002b670                __aeabi_ul2d
                0x1002b684                __floatdidf
                0x1002b684                __aeabi_l2d
 .text          0x1002b6e4      0x49c c:/projects/ultra700/gcc/bin/../lib/gcc/arm-none-eabi/9.3.1\libgcc.a(_arm_muldivdf3.o)
                0x1002b6e4                __aeabi_dmul
                0x1002b6e4                __muldf3
                0x1002b974                __divdf3
                0x1002b974                __aeabi_ddiv
 .text          0x1002bb80      0x144 c:/projects/ultra700/gcc/bin/../lib/gcc/arm-none-eabi/9.3.1\libgcc.a(_arm_cmpdf2.o)
                0x1002bb80                __gtdf2
                0x1002bb80                __gedf2
                0x1002bb88                __ltdf2
                0x1002bb88                __ledf2
                0x1002bb90                __nedf2
                0x1002bb90                __eqdf2
                0x1002bb90                __cmpdf2
                0x1002bc18                __aeabi_cdrcmple
                0x1002bc34                __aeabi_cdcmpeq
                0x1002bc34                __aeabi_cdcmple
                0x1002bc4c                __aeabi_dcmpeq
                0x1002bc64                __aeabi_dcmplt
                0x1002bc7c                __aeabi_dcmple
                0x1002bc94                __aeabi_dcmpge
                0x1002bcac                __aeabi_dcmpgt
 .text          0x1002bcc4       0x38 c:/projects/ultra700/gcc/bin/../lib/gcc/arm-none-eabi/9.3.1\libgcc.a(_arm_unorddf2.o)
                0x1002bcc4                __unorddf2
                0x1002bcc4                __aeabi_dcmpun
 .text          0x1002bcfc       0x5c c:/projects/ultra700/gcc/bin/../lib/gcc/arm-none-eabi/9.3.1\libgcc.a(_arm_fixdfsi.o)
                0x1002bcfc                __aeabi_d2iz
                0x1002bcfc                __fixdfsi
 .text          0x1002bd58       0x3c c:/projects/ultra700/gcc/bin/../lib/gcc/arm-none-eabi/9.3.1\libgcc.a(_aeabi_uldivmod.o)
                0x1002bd58                __aeabi_uldivmod
 .text          0x1002bd94      0x130 c:/projects/ultra700/gcc/bin/../lib/gcc/arm-none-eabi/9.3.1\libgcc.a(_udivmoddi4.o)
                0x1002bd94                __udivmoddi4
 .text          0x1002bec4       0x28 c:/projects/ultra700/gcc/bin/../lib/gcc/arm-none-eabi/9.3.1\libgcc.a(_clzdi2.o)
                0x1002bec4                __clzdi2
 .text          0x1002beec       0x48 c:/projects/ultra700/gcc/bin/../lib/gcc/arm-none-eabi/9.3.1\libgcc.a(_clzsi2.o)
                0x1002beec                __clzsi2
 .text._close   0x1002bf34       0x18 c:/projects/ultra700/gcc/bin/../lib/gcc/arm-none-eabi/9.3.1/../../../../arm-none-eabi/lib\libnosys.a(close.o)
                0x1002bf34                _close
 .text._fstat   0x1002bf4c       0x18 c:/projects/ultra700/gcc/bin/../lib/gcc/arm-none-eabi/9.3.1/../../../../arm-none-eabi/lib\libnosys.a(fstat.o)
                0x1002bf4c                _fstat
 .text._getpid  0x1002bf64       0x18 c:/projects/ultra700/gcc/bin/../lib/gcc/arm-none-eabi/9.3.1/../../../../arm-none-eabi/lib\libnosys.a(getpid.o)
                0x1002bf64                _getpid
 .text._isatty  0x1002bf7c       0x18 c:/projects/ultra700/gcc/bin/../lib/gcc/arm-none-eabi/9.3.1/../../../../arm-none-eabi/lib\libnosys.a(isatty.o)
                0x1002bf7c                _isatty
 .text._kill    0x1002bf94       0x18 c:/projects/ultra700/gcc/bin/../lib/gcc/arm-none-eabi/9.3.1/../../../../arm-none-eabi/lib\libnosys.a(kill.o)
                0x1002bf94                _kill
 .text._lseek   0x1002bfac       0x18 c:/projects/ultra700/gcc/bin/../lib/gcc/arm-none-eabi/9.3.1/../../../../arm-none-eabi/lib\libnosys.a(lseek.o)
                0x1002bfac                _lseek
 .text._read    0x1002bfc4       0x18 c:/projects/ultra700/gcc/bin/../lib/gcc/arm-none-eabi/9.3.1/../../../../arm-none-eabi/lib\libnosys.a(read.o)
                0x1002bfc4                _read
 .text._sbrk    0x1002bfdc       0x2c c:/projects/ultra700/gcc/bin/../lib/gcc/arm-none-eabi/9.3.1/../../../../arm-none-eabi/lib\libnosys.a(sbrk.o)
                0x1002bfdc                _sbrk
 .text._exit    0x1002c008        0x4 c:/projects/ultra700/gcc/bin/../lib/gcc/arm-none-eabi/9.3.1/../../../../arm-none-eabi/lib\libnosys.a(_exit.o)
                0x1002c008                _exit
 *fill*         0x1002c00c        0x4 
 .text._exit.__stub
                0x1002c010       0x18 linker stubs
 *(.init)
 *(.fini)
 *crtbegin.o(.ctors)
 *crtbegin?.o(.ctors)
 *(EXCLUDE_FILE(*crtend.o *crtend?.o) .ctors)
 *(SORT_BY_NAME(.ctors.*))
 *(.ctors)
 *crtbegin.o(.dtors)
 *crtbegin?.o(.dtors)
 *(EXCLUDE_FILE(*crtend.o *crtend?.o) .dtors)
 *(SORT_BY_NAME(.dtors.*))
 *(.dtors)
 *(.rodata*)
 .rodata        0x1002c028      0x140 CMakeFiles/payload.elf.dir/src/System/init.c.obj
 .rodata        0x1002c168      0x182 CMakeFiles/payload.elf.dir/src/System/sf.c.obj
 *fill*         0x1002c2ea        0x2 
 .rodata.table  0x1002c2ec      0x400 CMakeFiles/payload.elf.dir/src/System/tlsf.c.obj
 .rodata.CFormatToBPP
                0x1002c6ec        0x7 CMakeFiles/payload.elf.dir/src/Lib/MT6261/Drivers/lcdif.c.obj
                0x1002c6ec                CFormatToBPP
 *fill*         0x1002c6f3        0x1 
 .rodata        0x1002c6f4       0xc4 CMakeFiles/payload.elf.dir/src/Lib/MT6261/Drivers/lcdif.c.obj
 .rodata        0x1002c7b8      0x1b1 CMakeFiles/payload.elf.dir/src/Lib/MT6261/Drivers/msdc.c.obj
 *fill*         0x1002c969        0x3 
 .rodata        0x1002c96c       0x79 CMakeFiles/payload.elf.dir/src/Lib/MT6261/Drivers/nvic.c.obj
 *fill*         0x1002c9e5        0x3 
 .rodata.BatCurrentLimits
                0x1002c9e8       0x40 CMakeFiles/payload.elf.dir/src/Lib/MT6261/Drivers/pmu.c.obj
                0x1002c9e8                BatCurrentLimits
 .rodata        0x1002ca28      0x1a1 CMakeFiles/payload.elf.dir/src/Lib/MT6261/Drivers/pmu.c.obj
 *fill*         0x1002cbc9        0x3 
 .rodata.DayInMonth
                0x1002cbcc        0xd CMakeFiles/payload.elf.dir/src/Lib/MT6261/Drivers/rtc.c.obj
 *fill*         0x1002cbd9        0x3 
 .rodata        0x1002cbdc       0x30 CMakeFiles/payload.elf.dir/src/Lib/MT6261/Drivers/rtc.c.obj
 .rodata        0x1002cc0c       0xa5 CMakeFiles/payload.elf.dir/src/Lib/MT6261/Drivers/tcmcache.c.obj
 *fill*         0x1002ccb1        0x3 
 .rodata.EPFIFOSize
                0x1002ccb4        0x7 CMakeFiles/payload.elf.dir/src/Lib/MT6261/Drivers/usb.c.obj
                0x1002ccb4                EPFIFOSize
 *fill*         0x1002ccbb        0x1 
 .rodata        0x1002ccbc       0x7b CMakeFiles/payload.elf.dir/src/Lib/MT6261/Drivers/usb.c.obj
 *fill*         0x1002cd37        0x1 
 .rodata.DrawText.7440
                0x1002cd38       0x1c CMakeFiles/payload.elf.dir/src/GUI/gdifont.c.obj
 .rodata        0x1002cd54       0x61 CMakeFiles/payload.elf.dir/src/GUI/gui.c.obj
 *fill*         0x1002cdb5        0x3 
 .rodata.DestroyObject.7326
                0x1002cdb8       0x10 CMakeFiles/payload.elf.dir/src/GUI/gui.c.obj
 .rodata.DestroyObject.7334
                0x1002cdc8       0x10 CMakeFiles/payload.elf.dir/src/GUI/gui.c.obj
 .rodata.CalcClientArea.7313
                0x1002cdd8       0x10 CMakeFiles/payload.elf.dir/src/GUI/guiobject.c.obj
 .rodata.SetActive.7492
                0x1002cde8       0x10 CMakeFiles/payload.elf.dir/src/GUI/guiobject.c.obj
 .rodata.SetActive.7499
                0x1002cdf8       0x10 CMakeFiles/payload.elf.dir/src/GUI/guiobject.c.obj
 .rodata.GetActive.7501
                0x1002ce08       0x10 CMakeFiles/payload.elf.dir/src/GUI/guiobject.c.obj
 .rodata.DrawDefault.7508
                0x1002ce18       0x10 CMakeFiles/payload.elf.dir/src/GUI/guiobject.c.obj
 .rodata        0x1002ce28      0x490 CMakeFiles/payload.elf.dir/src/Application/appinit.c.obj
 .rodata.song.7423
                0x1002d2b8       0x40 CMakeFiles/payload.elf.dir/src/Application/appinit.c.obj
 .rodata.sine256
                0x1002d2f8      0x236 CMakeFiles/payload.elf.dir/src/Application/audio_note.c.obj
 *fill*         0x1002d52e        0x2 
 .rodata        0x1002d530        0x9 CMakeFiles/payload.elf.dir/src/Application/Drivers/dflib.c.obj
 *fill*         0x1002d539        0x3 
 .rodata.DFConfigList
                0x1002d53c       0x70 CMakeFiles/payload.elf.dir/src/Application/Drivers/dflib.c.obj
                0x1002d53c                DFConfigList
 .rodata.rows   0x1002d5ac       0x14 CMakeFiles/payload.elf.dir/src/Application/Drivers/simple_keypad.c.obj
 .rodata.cols   0x1002d5c0       0x14 CMakeFiles/payload.elf.dir/src/Application/Drivers/simple_keypad.c.obj
 .rodata        0x1002d5d4      0x1b8 CMakeFiles/payload.elf.dir/src/Application/Drivers/simple_keypad.c.obj
 .rodata        0x1002d78c       0x88 CMakeFiles/payload.elf.dir/src/Application/Drivers/single_led.c.obj
 .rodata        0x1002d814       0x84 CMakeFiles/payload.elf.dir/src/Application/Drivers/sdcard.c.obj
 .rodata        0x1002d898       0x23 CMakeFiles/payload.elf.dir/src/Application/pcm_player.c.obj
 *fill*         0x1002d8bb        0x1 
 .rodata.demo_pcm
                0x1002d8bc       0x60 CMakeFiles/payload.elf.dir/src/Application/pcm_player.c.obj
 .rodata.sd00_cdc
                0x1002d91c        0x4 CMakeFiles/payload.elf.dir/src/Application/Drivers/usbdevice_cdc.c.obj
                0x1002d91c                sd00_cdc
 .rodata.sd01_cdc
                0x1002d920       0x34 CMakeFiles/payload.elf.dir/src/Application/Drivers/usbdevice_cdc.c.obj
                0x1002d920                sd01_cdc
 .rodata.sd02_cdc
                0x1002d954       0x30 CMakeFiles/payload.elf.dir/src/Application/Drivers/usbdevice_cdc.c.obj
                0x1002d954                sd02_cdc
 .rodata.STR_DATA_CDC
                0x1002d984        0xc CMakeFiles/payload.elf.dir/src/Application/Drivers/usbdevice_cdc.c.obj
 .rodata.DEV_DESC_CDC
                0x1002d990       0x12 CMakeFiles/payload.elf.dir/src/Application/Drivers/usbdevice_cdc.c.obj
 *fill*         0x1002d9a2        0x2 
 .rodata.CFG_DESC_CDC
                0x1002d9a4       0x28 CMakeFiles/payload.elf.dir/src/Application/Drivers/usbdevice_cdc.c.obj
 .rodata.VReq   0x1002d9cc       0x1c CMakeFiles/payload.elf.dir/src/Application/Drivers/usbdevice_cdc.c.obj
 .rodata._global_impure_ptr
                0x1002d9e8        0x4 c:/projects/ultra700/gcc/bin/../lib/gcc/arm-none-eabi/9.3.1/../../../../arm-none-eabi/lib\libc.a(lib_a-impure.o)
                0x1002d9e8                _global_impure_ptr
 .rodata._vfprintf_r.str1.4
                0x1002d9ec       0x42 c:/projects/ultra700/gcc/bin/../lib/gcc/arm-none-eabi/9.3.1/../../../../arm-none-eabi/lib\libc.a(lib_a-vfprintf.o)
 *fill*         0x1002da2e        0x2 
 .rodata.blanks.7350
                0x1002da30       0x10 c:/projects/ultra700/gcc/bin/../lib/gcc/arm-none-eabi/9.3.1/../../../../arm-none-eabi/lib\libc.a(lib_a-vfprintf.o)
 .rodata.zeroes.7351
                0x1002da40       0x10 c:/projects/ultra700/gcc/bin/../lib/gcc/arm-none-eabi/9.3.1/../../../../arm-none-eabi/lib\libc.a(lib_a-vfprintf.o)
 .rodata._dtoa_r.str1.4
                0x1002da50       0xa0 c:/projects/ultra700/gcc/bin/../lib/gcc/arm-none-eabi/9.3.1/../../../../arm-none-eabi/lib\libc.a(lib_a-dtoa.o)
                                 0xa4 (size before relaxing)
 .rodata.__multadd.str1.4
                0x1002daf0       0x7d c:/projects/ultra700/gcc/bin/../lib/gcc/arm-none-eabi/9.3.1/../../../../arm-none-eabi/lib\libc.a(lib_a-mprec.o)
                                 0x91 (size before relaxing)
 *fill*         0x1002db6d        0x3 
 .rodata.__mprec_bigtens
                0x1002db70       0x28 c:/projects/ultra700/gcc/bin/../lib/gcc/arm-none-eabi/9.3.1/../../../../arm-none-eabi/lib\libc.a(lib_a-mprec.o)
                0x1002db70                __mprec_bigtens
 .rodata.__mprec_tens
                0x1002db98       0xc8 c:/projects/ultra700/gcc/bin/../lib/gcc/arm-none-eabi/9.3.1/../../../../arm-none-eabi/lib\libc.a(lib_a-mprec.o)
                0x1002db98                __mprec_tens
 .rodata.p05.6122
                0x1002dc60        0xc c:/projects/ultra700/gcc/bin/../lib/gcc/arm-none-eabi/9.3.1/../../../../arm-none-eabi/lib\libc.a(lib_a-mprec.o)
 .rodata._svfprintf_r.str1.4
                0x1002dc6c       0x42 c:/projects/ultra700/gcc/bin/../lib/gcc/arm-none-eabi/9.3.1/../../../../arm-none-eabi/lib\libc.a(lib_a-svfprintf.o)
 .rodata.blanks.7335
                0x1002dc6c       0x10 c:/projects/ultra700/gcc/bin/../lib/gcc/arm-none-eabi/9.3.1/../../../../arm-none-eabi/lib\libc.a(lib_a-svfprintf.o)
 .rodata.zeroes.7336
                0x1002dc7c       0x10 c:/projects/ultra700/gcc/bin/../lib/gcc/arm-none-eabi/9.3.1/../../../../arm-none-eabi/lib\libc.a(lib_a-svfprintf.o)
 .rodata._vfiprintf_r.str1.4
                0x1002dc8c       0x2f c:/projects/ultra700/gcc/bin/../lib/gcc/arm-none-eabi/9.3.1/../../../../arm-none-eabi/lib\libc.a(lib_a-vfiprintf.o)
 .rodata.blanks.7328
                0x1002dc8c       0x10 c:/projects/ultra700/gcc/bin/../lib/gcc/arm-none-eabi/9.3.1/../../../../arm-none-eabi/lib\libc.a(lib_a-vfiprintf.o)
 .rodata.zeroes.7329
                0x1002dc9c       0x10 c:/projects/ultra700/gcc/bin/../lib/gcc/arm-none-eabi/9.3.1/../../../../arm-none-eabi/lib\libc.a(lib_a-vfiprintf.o)
 .rodata.__assert_func.str1.4
                0x1002dcac       0x3f c:/projects/ultra700/gcc/bin/../lib/gcc/arm-none-eabi/9.3.1/../../../../arm-none-eabi/lib\libc.a(lib_a-assert.o)
                                 0x43 (size before relaxing)
 *fill*         0x1002dceb        0x1 
 .rodata._setlocale_r.str1.4
                0x1002dcec        0xa c:/projects/ultra700/gcc/bin/../lib/gcc/arm-none-eabi/9.3.1/../../../../arm-none-eabi/lib\libc.a(lib_a-locale.o)
                                  0xd (size before relaxing)
 *fill*         0x1002dcf6        0x2 
 .rodata.str1.4
                0x1002dcf8        0x2 c:/projects/ultra700/gcc/bin/../lib/gcc/arm-none-eabi/9.3.1/../../../../arm-none-eabi/lib\libc.a(lib_a-locale.o)
 *fill*         0x1002dcfa        0x2 
 .rodata._ctype_
                0x1002dcfc      0x101 c:/projects/ultra700/gcc/bin/../lib/gcc/arm-none-eabi/9.3.1/../../../../arm-none-eabi/lib\libc.a(lib_a-ctype_.o)
                0x1002dcfc                _ctype_
 *fill*         0x1002ddfd        0x3 
 .rodata.abc_fontCourier20h_0020
                0x1002de00       0x21 C:/Projects/ultra700/src/GUI/Resource/fontlib.a(courier20h.o)
                0x1002de00                abc_fontCourier20h_0020
 *fill*         0x1002de21        0x3 
 .rodata.abc_fontCourier20h_0021
                0x1002de24       0x21 C:/Projects/ultra700/src/GUI/Resource/fontlib.a(courier20h.o)
                0x1002de24                abc_fontCourier20h_0021
 *fill*         0x1002de45        0x3 
 .rodata.abc_fontCourier20h_0022
                0x1002de48       0x21 C:/Projects/ultra700/src/GUI/Resource/fontlib.a(courier20h.o)
                0x1002de48                abc_fontCourier20h_0022
 *fill*         0x1002de69        0x3 
 .rodata.abc_fontCourier20h_0023
                0x1002de6c       0x21 C:/Projects/ultra700/src/GUI/Resource/fontlib.a(courier20h.o)
                0x1002de6c                abc_fontCourier20h_0023
 *fill*         0x1002de8d        0x3 
 .rodata.abc_fontCourier20h_0024
                0x1002de90       0x21 C:/Projects/ultra700/src/GUI/Resource/fontlib.a(courier20h.o)
                0x1002de90                abc_fontCourier20h_0024
 *fill*         0x1002deb1        0x3 
 .rodata.abc_fontCourier20h_0025
                0x1002deb4       0x21 C:/Projects/ultra700/src/GUI/Resource/fontlib.a(courier20h.o)
                0x1002deb4                abc_fontCourier20h_0025
 *fill*         0x1002ded5        0x3 
 .rodata.abc_fontCourier20h_0026
                0x1002ded8       0x21 C:/Projects/ultra700/src/GUI/Resource/fontlib.a(courier20h.o)
                0x1002ded8                abc_fontCourier20h_0026
 *fill*         0x1002def9        0x3 
 .rodata.abc_fontCourier20h_0027
                0x1002defc       0x21 C:/Projects/ultra700/src/GUI/Resource/fontlib.a(courier20h.o)
                0x1002defc                abc_fontCourier20h_0027
 *fill*         0x1002df1d        0x3 
 .rodata.abc_fontCourier20h_0028
                0x1002df20       0x21 C:/Projects/ultra700/src/GUI/Resource/fontlib.a(courier20h.o)
                0x1002df20                abc_fontCourier20h_0028
 *fill*         0x1002df41        0x3 
 .rodata.abc_fontCourier20h_0029
                0x1002df44       0x21 C:/Projects/ultra700/src/GUI/Resource/fontlib.a(courier20h.o)
                0x1002df44                abc_fontCourier20h_0029
 *fill*         0x1002df65        0x3 
 .rodata.abc_fontCourier20h_002A
                0x1002df68       0x21 C:/Projects/ultra700/src/GUI/Resource/fontlib.a(courier20h.o)
                0x1002df68                abc_fontCourier20h_002A
 *fill*         0x1002df89        0x3 
 .rodata.abc_fontCourier20h_002B
                0x1002df8c       0x21 C:/Projects/ultra700/src/GUI/Resource/fontlib.a(courier20h.o)
                0x1002df8c                abc_fontCourier20h_002B
 *fill*         0x1002dfad        0x3 
 .rodata.abc_fontCourier20h_002C
                0x1002dfb0       0x21 C:/Projects/ultra700/src/GUI/Resource/fontlib.a(courier20h.o)
                0x1002dfb0                abc_fontCourier20h_002C
 *fill*         0x1002dfd1        0x3 
 .rodata.abc_fontCourier20h_002D
                0x1002dfd4       0x21 C:/Projects/ultra700/src/GUI/Resource/fontlib.a(courier20h.o)
                0x1002dfd4                abc_fontCourier20h_002D
 *fill*         0x1002dff5        0x3 
 .rodata.abc_fontCourier20h_002E
                0x1002dff8       0x21 C:/Projects/ultra700/src/GUI/Resource/fontlib.a(courier20h.o)
                0x1002dff8                abc_fontCourier20h_002E
 *fill*         0x1002e019        0x3 
 .rodata.abc_fontCourier20h_002F
                0x1002e01c       0x21 C:/Projects/ultra700/src/GUI/Resource/fontlib.a(courier20h.o)
                0x1002e01c                abc_fontCourier20h_002F
 *fill*         0x1002e03d        0x3 
 .rodata.abc_fontCourier20h_0030
                0x1002e040       0x21 C:/Projects/ultra700/src/GUI/Resource/fontlib.a(courier20h.o)
                0x1002e040                abc_fontCourier20h_0030
 *fill*         0x1002e061        0x3 
 .rodata.abc_fontCourier20h_0031
                0x1002e064       0x21 C:/Projects/ultra700/src/GUI/Resource/fontlib.a(courier20h.o)
                0x1002e064                abc_fontCourier20h_0031
 *fill*         0x1002e085        0x3 
 .rodata.abc_fontCourier20h_0032
                0x1002e088       0x21 C:/Projects/ultra700/src/GUI/Resource/fontlib.a(courier20h.o)
                0x1002e088                abc_fontCourier20h_0032
 *fill*         0x1002e0a9        0x3 
 .rodata.abc_fontCourier20h_0033
                0x1002e0ac       0x21 C:/Projects/ultra700/src/GUI/Resource/fontlib.a(courier20h.o)
                0x1002e0ac                abc_fontCourier20h_0033
 *fill*         0x1002e0cd        0x3 
 .rodata.abc_fontCourier20h_0034
                0x1002e0d0       0x21 C:/Projects/ultra700/src/GUI/Resource/fontlib.a(courier20h.o)
                0x1002e0d0                abc_fontCourier20h_0034
 *fill*         0x1002e0f1        0x3 
 .rodata.abc_fontCourier20h_0035
                0x1002e0f4       0x21 C:/Projects/ultra700/src/GUI/Resource/fontlib.a(courier20h.o)
                0x1002e0f4                abc_fontCourier20h_0035
 *fill*         0x1002e115        0x3 
 .rodata.abc_fontCourier20h_0036
                0x1002e118       0x21 C:/Projects/ultra700/src/GUI/Resource/fontlib.a(courier20h.o)
                0x1002e118                abc_fontCourier20h_0036
 *fill*         0x1002e139        0x3 
 .rodata.abc_fontCourier20h_0037
                0x1002e13c       0x21 C:/Projects/ultra700/src/GUI/Resource/fontlib.a(courier20h.o)
                0x1002e13c                abc_fontCourier20h_0037
 *fill*         0x1002e15d        0x3 
 .rodata.abc_fontCourier20h_0038
                0x1002e160       0x21 C:/Projects/ultra700/src/GUI/Resource/fontlib.a(courier20h.o)
                0x1002e160                abc_fontCourier20h_0038
 *fill*         0x1002e181        0x3 
 .rodata.abc_fontCourier20h_0039
                0x1002e184       0x21 C:/Projects/ultra700/src/GUI/Resource/fontlib.a(courier20h.o)
                0x1002e184                abc_fontCourier20h_0039
 *fill*         0x1002e1a5        0x3 
 .rodata.abc_fontCourier20h_003A
                0x1002e1a8       0x21 C:/Projects/ultra700/src/GUI/Resource/fontlib.a(courier20h.o)
                0x1002e1a8                abc_fontCourier20h_003A
 *fill*         0x1002e1c9        0x3 
 .rodata.abc_fontCourier20h_003B
                0x1002e1cc       0x21 C:/Projects/ultra700/src/GUI/Resource/fontlib.a(courier20h.o)
                0x1002e1cc                abc_fontCourier20h_003B
 *fill*         0x1002e1ed        0x3 
 .rodata.abc_fontCourier20h_003C
                0x1002e1f0       0x21 C:/Projects/ultra700/src/GUI/Resource/fontlib.a(courier20h.o)
                0x1002e1f0                abc_fontCourier20h_003C
 *fill*         0x1002e211        0x3 
 .rodata.abc_fontCourier20h_003D
                0x1002e214       0x21 C:/Projects/ultra700/src/GUI/Resource/fontlib.a(courier20h.o)
                0x1002e214                abc_fontCourier20h_003D
 *fill*         0x1002e235        0x3 
 .rodata.abc_fontCourier20h_003E
                0x1002e238       0x21 C:/Projects/ultra700/src/GUI/Resource/fontlib.a(courier20h.o)
                0x1002e238                abc_fontCourier20h_003E
 *fill*         0x1002e259        0x3 
 .rodata.abc_fontCourier20h_003F
                0x1002e25c       0x21 C:/Projects/ultra700/src/GUI/Resource/fontlib.a(courier20h.o)
                0x1002e25c                abc_fontCourier20h_003F
 *fill*         0x1002e27d        0x3 
 .rodata.abc_fontCourier20h_0040
                0x1002e280       0x21 C:/Projects/ultra700/src/GUI/Resource/fontlib.a(courier20h.o)
                0x1002e280                abc_fontCourier20h_0040
 *fill*         0x1002e2a1        0x3 
 .rodata.abc_fontCourier20h_0041
                0x1002e2a4       0x21 C:/Projects/ultra700/src/GUI/Resource/fontlib.a(courier20h.o)
                0x1002e2a4                abc_fontCourier20h_0041
 *fill*         0x1002e2c5        0x3 
 .rodata.abc_fontCourier20h_0042
                0x1002e2c8       0x21 C:/Projects/ultra700/src/GUI/Resource/fontlib.a(courier20h.o)
                0x1002e2c8                abc_fontCourier20h_0042
 *fill*         0x1002e2e9        0x3 
 .rodata.abc_fontCourier20h_0043
                0x1002e2ec       0x21 C:/Projects/ultra700/src/GUI/Resource/fontlib.a(courier20h.o)
                0x1002e2ec                abc_fontCourier20h_0043
 *fill*         0x1002e30d        0x3 
 .rodata.abc_fontCourier20h_0044
                0x1002e310       0x21 C:/Projects/ultra700/src/GUI/Resource/fontlib.a(courier20h.o)
                0x1002e310                abc_fontCourier20h_0044
 *fill*         0x1002e331        0x3 
 .rodata.abc_fontCourier20h_0045
                0x1002e334       0x21 C:/Projects/ultra700/src/GUI/Resource/fontlib.a(courier20h.o)
                0x1002e334                abc_fontCourier20h_0045
 *fill*         0x1002e355        0x3 
 .rodata.abc_fontCourier20h_0046
                0x1002e358       0x21 C:/Projects/ultra700/src/GUI/Resource/fontlib.a(courier20h.o)
                0x1002e358                abc_fontCourier20h_0046
 *fill*         0x1002e379        0x3 
 .rodata.abc_fontCourier20h_0047
                0x1002e37c       0x21 C:/Projects/ultra700/src/GUI/Resource/fontlib.a(courier20h.o)
                0x1002e37c                abc_fontCourier20h_0047
 *fill*         0x1002e39d        0x3 
 .rodata.abc_fontCourier20h_0048
                0x1002e3a0       0x21 C:/Projects/ultra700/src/GUI/Resource/fontlib.a(courier20h.o)
                0x1002e3a0                abc_fontCourier20h_0048
 *fill*         0x1002e3c1        0x3 
 .rodata.abc_fontCourier20h_0049
                0x1002e3c4       0x21 C:/Projects/ultra700/src/GUI/Resource/fontlib.a(courier20h.o)
                0x1002e3c4                abc_fontCourier20h_0049
 *fill*         0x1002e3e5        0x3 
 .rodata.abc_fontCourier20h_004A
                0x1002e3e8       0x21 C:/Projects/ultra700/src/GUI/Resource/fontlib.a(courier20h.o)
                0x1002e3e8                abc_fontCourier20h_004A
 *fill*         0x1002e409        0x3 
 .rodata.abc_fontCourier20h_004B
                0x1002e40c       0x21 C:/Projects/ultra700/src/GUI/Resource/fontlib.a(courier20h.o)
                0x1002e40c                abc_fontCourier20h_004B
 *fill*         0x1002e42d        0x3 
 .rodata.abc_fontCourier20h_004C
                0x1002e430       0x21 C:/Projects/ultra700/src/GUI/Resource/fontlib.a(courier20h.o)
                0x1002e430                abc_fontCourier20h_004C
 *fill*         0x1002e451        0x3 
 .rodata.abc_fontCourier20h_004D
                0x1002e454       0x21 C:/Projects/ultra700/src/GUI/Resource/fontlib.a(courier20h.o)
                0x1002e454                abc_fontCourier20h_004D
 *fill*         0x1002e475        0x3 
 .rodata.abc_fontCourier20h_004E
                0x1002e478       0x21 C:/Projects/ultra700/src/GUI/Resource/fontlib.a(courier20h.o)
                0x1002e478                abc_fontCourier20h_004E
 *fill*         0x1002e499        0x3 
 .rodata.abc_fontCourier20h_004F
                0x1002e49c       0x21 C:/Projects/ultra700/src/GUI/Resource/fontlib.a(courier20h.o)
                0x1002e49c                abc_fontCourier20h_004F
 *fill*         0x1002e4bd        0x3 
 .rodata.abc_fontCourier20h_0050
                0x1002e4c0       0x21 C:/Projects/ultra700/src/GUI/Resource/fontlib.a(courier20h.o)
                0x1002e4c0                abc_fontCourier20h_0050
 *fill*         0x1002e4e1        0x3 
 .rodata.abc_fontCourier20h_0051
                0x1002e4e4       0x21 C:/Projects/ultra700/src/GUI/Resource/fontlib.a(courier20h.o)
                0x1002e4e4                abc_fontCourier20h_0051
 *fill*         0x1002e505        0x3 
 .rodata.abc_fontCourier20h_0052
                0x1002e508       0x21 C:/Projects/ultra700/src/GUI/Resource/fontlib.a(courier20h.o)
                0x1002e508                abc_fontCourier20h_0052
 *fill*         0x1002e529        0x3 
 .rodata.abc_fontCourier20h_0053
                0x1002e52c       0x21 C:/Projects/ultra700/src/GUI/Resource/fontlib.a(courier20h.o)
                0x1002e52c                abc_fontCourier20h_0053
 *fill*         0x1002e54d        0x3 
 .rodata.abc_fontCourier20h_0054
                0x1002e550       0x21 C:/Projects/ultra700/src/GUI/Resource/fontlib.a(courier20h.o)
                0x1002e550                abc_fontCourier20h_0054
 *fill*         0x1002e571        0x3 
 .rodata.abc_fontCourier20h_0055
                0x1002e574       0x21 C:/Projects/ultra700/src/GUI/Resource/fontlib.a(courier20h.o)
                0x1002e574                abc_fontCourier20h_0055
 *fill*         0x1002e595        0x3 
 .rodata.abc_fontCourier20h_0056
                0x1002e598       0x21 C:/Projects/ultra700/src/GUI/Resource/fontlib.a(courier20h.o)
                0x1002e598                abc_fontCourier20h_0056
 *fill*         0x1002e5b9        0x3 
 .rodata.abc_fontCourier20h_0057
                0x1002e5bc       0x21 C:/Projects/ultra700/src/GUI/Resource/fontlib.a(courier20h.o)
                0x1002e5bc                abc_fontCourier20h_0057
 *fill*         0x1002e5dd        0x3 
 .rodata.abc_fontCourier20h_0058
                0x1002e5e0       0x21 C:/Projects/ultra700/src/GUI/Resource/fontlib.a(courier20h.o)
                0x1002e5e0                abc_fontCourier20h_0058
 *fill*         0x1002e601        0x3 
 .rodata.abc_fontCourier20h_0059
                0x1002e604       0x21 C:/Projects/ultra700/src/GUI/Resource/fontlib.a(courier20h.o)
                0x1002e604                abc_fontCourier20h_0059
 *fill*         0x1002e625        0x3 
 .rodata.abc_fontCourier20h_005A
                0x1002e628       0x21 C:/Projects/ultra700/src/GUI/Resource/fontlib.a(courier20h.o)
                0x1002e628                abc_fontCourier20h_005A
 *fill*         0x1002e649        0x3 
 .rodata.abc_fontCourier20h_005B
                0x1002e64c       0x21 C:/Projects/ultra700/src/GUI/Resource/fontlib.a(courier20h.o)
                0x1002e64c                abc_fontCourier20h_005B
 *fill*         0x1002e66d        0x3 
 .rodata.abc_fontCourier20h_005C
                0x1002e670       0x21 C:/Projects/ultra700/src/GUI/Resource/fontlib.a(courier20h.o)
                0x1002e670                abc_fontCourier20h_005C
 *fill*         0x1002e691        0x3 
 .rodata.abc_fontCourier20h_005D
                0x1002e694       0x21 C:/Projects/ultra700/src/GUI/Resource/fontlib.a(courier20h.o)
                0x1002e694                abc_fontCourier20h_005D
 *fill*         0x1002e6b5        0x3 
 .rodata.abc_fontCourier20h_005E
                0x1002e6b8       0x21 C:/Projects/ultra700/src/GUI/Resource/fontlib.a(courier20h.o)
                0x1002e6b8                abc_fontCourier20h_005E
 *fill*         0x1002e6d9        0x3 
 .rodata.abc_fontCourier20h_005F
                0x1002e6dc       0x21 C:/Projects/ultra700/src/GUI/Resource/fontlib.a(courier20h.o)
                0x1002e6dc                abc_fontCourier20h_005F
 *fill*         0x1002e6fd        0x3 
 .rodata.abc_fontCourier20h_0060
                0x1002e700       0x21 C:/Projects/ultra700/src/GUI/Resource/fontlib.a(courier20h.o)
                0x1002e700                abc_fontCourier20h_0060
 *fill*         0x1002e721        0x3 
 .rodata.abc_fontCourier20h_0061
                0x1002e724       0x21 C:/Projects/ultra700/src/GUI/Resource/fontlib.a(courier20h.o)
                0x1002e724                abc_fontCourier20h_0061
 *fill*         0x1002e745        0x3 
 .rodata.abc_fontCourier20h_0062
                0x1002e748       0x21 C:/Projects/ultra700/src/GUI/Resource/fontlib.a(courier20h.o)
                0x1002e748                abc_fontCourier20h_0062
 *fill*         0x1002e769        0x3 
 .rodata.abc_fontCourier20h_0063
                0x1002e76c       0x21 C:/Projects/ultra700/src/GUI/Resource/fontlib.a(courier20h.o)
                0x1002e76c                abc_fontCourier20h_0063
 *fill*         0x1002e78d        0x3 
 .rodata.abc_fontCourier20h_0064
                0x1002e790       0x21 C:/Projects/ultra700/src/GUI/Resource/fontlib.a(courier20h.o)
                0x1002e790                abc_fontCourier20h_0064
 *fill*         0x1002e7b1        0x3 
 .rodata.abc_fontCourier20h_0065
                0x1002e7b4       0x21 C:/Projects/ultra700/src/GUI/Resource/fontlib.a(courier20h.o)
                0x1002e7b4                abc_fontCourier20h_0065
 *fill*         0x1002e7d5        0x3 
 .rodata.abc_fontCourier20h_0066
                0x1002e7d8       0x21 C:/Projects/ultra700/src/GUI/Resource/fontlib.a(courier20h.o)
                0x1002e7d8                abc_fontCourier20h_0066
 *fill*         0x1002e7f9        0x3 
 .rodata.abc_fontCourier20h_0067
                0x1002e7fc       0x21 C:/Projects/ultra700/src/GUI/Resource/fontlib.a(courier20h.o)
                0x1002e7fc                abc_fontCourier20h_0067
 *fill*         0x1002e81d        0x3 
 .rodata.abc_fontCourier20h_0068
                0x1002e820       0x21 C:/Projects/ultra700/src/GUI/Resource/fontlib.a(courier20h.o)
                0x1002e820                abc_fontCourier20h_0068
 *fill*         0x1002e841        0x3 
 .rodata.abc_fontCourier20h_0069
                0x1002e844       0x21 C:/Projects/ultra700/src/GUI/Resource/fontlib.a(courier20h.o)
                0x1002e844                abc_fontCourier20h_0069
 *fill*         0x1002e865        0x3 
 .rodata.abc_fontCourier20h_006A
                0x1002e868       0x21 C:/Projects/ultra700/src/GUI/Resource/fontlib.a(courier20h.o)
                0x1002e868                abc_fontCourier20h_006A
 *fill*         0x1002e889        0x3 
 .rodata.abc_fontCourier20h_006B
                0x1002e88c       0x21 C:/Projects/ultra700/src/GUI/Resource/fontlib.a(courier20h.o)
                0x1002e88c                abc_fontCourier20h_006B
 *fill*         0x1002e8ad        0x3 
 .rodata.abc_fontCourier20h_006C
                0x1002e8b0       0x21 C:/Projects/ultra700/src/GUI/Resource/fontlib.a(courier20h.o)
                0x1002e8b0                abc_fontCourier20h_006C
 *fill*         0x1002e8d1        0x3 
 .rodata.abc_fontCourier20h_006D
                0x1002e8d4       0x21 C:/Projects/ultra700/src/GUI/Resource/fontlib.a(courier20h.o)
                0x1002e8d4                abc_fontCourier20h_006D
 *fill*         0x1002e8f5        0x3 
 .rodata.abc_fontCourier20h_006E
                0x1002e8f8       0x21 C:/Projects/ultra700/src/GUI/Resource/fontlib.a(courier20h.o)
                0x1002e8f8                abc_fontCourier20h_006E
 *fill*         0x1002e919        0x3 
 .rodata.abc_fontCourier20h_006F
                0x1002e91c       0x21 C:/Projects/ultra700/src/GUI/Resource/fontlib.a(courier20h.o)
                0x1002e91c                abc_fontCourier20h_006F
 *fill*         0x1002e93d        0x3 
 .rodata.abc_fontCourier20h_0070
                0x1002e940       0x21 C:/Projects/ultra700/src/GUI/Resource/fontlib.a(courier20h.o)
                0x1002e940                abc_fontCourier20h_0070
 *fill*         0x1002e961        0x3 
 .rodata.abc_fontCourier20h_0071
                0x1002e964       0x21 C:/Projects/ultra700/src/GUI/Resource/fontlib.a(courier20h.o)
                0x1002e964                abc_fontCourier20h_0071
 *fill*         0x1002e985        0x3 
 .rodata.abc_fontCourier20h_0072
                0x1002e988       0x21 C:/Projects/ultra700/src/GUI/Resource/fontlib.a(courier20h.o)
                0x1002e988                abc_fontCourier20h_0072
 *fill*         0x1002e9a9        0x3 
 .rodata.abc_fontCourier20h_0073
                0x1002e9ac       0x21 C:/Projects/ultra700/src/GUI/Resource/fontlib.a(courier20h.o)
                0x1002e9ac                abc_fontCourier20h_0073
 *fill*         0x1002e9cd        0x3 
 .rodata.abc_fontCourier20h_0074
                0x1002e9d0       0x21 C:/Projects/ultra700/src/GUI/Resource/fontlib.a(courier20h.o)
                0x1002e9d0                abc_fontCourier20h_0074
 *fill*         0x1002e9f1        0x3 
 .rodata.abc_fontCourier20h_0075
                0x1002e9f4       0x21 C:/Projects/ultra700/src/GUI/Resource/fontlib.a(courier20h.o)
                0x1002e9f4                abc_fontCourier20h_0075
 *fill*         0x1002ea15        0x3 
 .rodata.abc_fontCourier20h_0076
                0x1002ea18       0x21 C:/Projects/ultra700/src/GUI/Resource/fontlib.a(courier20h.o)
                0x1002ea18                abc_fontCourier20h_0076
 *fill*         0x1002ea39        0x3 
 .rodata.abc_fontCourier20h_0077
                0x1002ea3c       0x21 C:/Projects/ultra700/src/GUI/Resource/fontlib.a(courier20h.o)
                0x1002ea3c                abc_fontCourier20h_0077
 *fill*         0x1002ea5d        0x3 
 .rodata.abc_fontCourier20h_0078
                0x1002ea60       0x21 C:/Projects/ultra700/src/GUI/Resource/fontlib.a(courier20h.o)
                0x1002ea60                abc_fontCourier20h_0078
 *fill*         0x1002ea81        0x3 
 .rodata.abc_fontCourier20h_0079
                0x1002ea84       0x21 C:/Projects/ultra700/src/GUI/Resource/fontlib.a(courier20h.o)
                0x1002ea84                abc_fontCourier20h_0079
 *fill*         0x1002eaa5        0x3 
 .rodata.abc_fontCourier20h_007A
                0x1002eaa8       0x21 C:/Projects/ultra700/src/GUI/Resource/fontlib.a(courier20h.o)
                0x1002eaa8                abc_fontCourier20h_007A
 *fill*         0x1002eac9        0x3 
 .rodata.abc_fontCourier20h_007B
                0x1002eacc       0x21 C:/Projects/ultra700/src/GUI/Resource/fontlib.a(courier20h.o)
                0x1002eacc                abc_fontCourier20h_007B
 *fill*         0x1002eaed        0x3 
 .rodata.abc_fontCourier20h_007C
                0x1002eaf0       0x21 C:/Projects/ultra700/src/GUI/Resource/fontlib.a(courier20h.o)
                0x1002eaf0                abc_fontCourier20h_007C
 *fill*         0x1002eb11        0x3 
 .rodata.abc_fontCourier20h_007D
                0x1002eb14       0x21 C:/Projects/ultra700/src/GUI/Resource/fontlib.a(courier20h.o)
                0x1002eb14                abc_fontCourier20h_007D
 *fill*         0x1002eb35        0x3 
 .rodata.abc_fontCourier20h_007E
                0x1002eb38       0x21 C:/Projects/ultra700/src/GUI/Resource/fontlib.a(courier20h.o)
                0x1002eb38                abc_fontCourier20h_007E
 *fill*         0x1002eb59        0x3 
 .rodata.fontCourier20h_CharInfo
                0x1002eb5c      0x2f8 C:/Projects/ultra700/src/GUI/Resource/fontlib.a(courier20h.o)
                0x1002eb5c                fontCourier20h_CharInfo
 .rodata.fontCourier20h_Prop1
                0x1002ee54       0x10 C:/Projects/ultra700/src/GUI/Resource/fontlib.a(courier20h.o)
                0x1002ee54                fontCourier20h_Prop1
 .rodata.fontCourier20h
                0x1002ee64       0x10 C:/Projects/ultra700/src/GUI/Resource/fontlib.a(courier20h.o)
                0x1002ee64                fontCourier20h
 *(.eh_frame*)
                0x00000044                __app_header_size = (__app_header_end - __app_header_base)

.glue_7         0x1002ee74        0x0
 .glue_7        0x1002ee74        0x0 linker stubs

.glue_7t        0x1002ee74        0x0
 .glue_7t       0x1002ee74        0x0 linker stubs

.vfp11_veneer   0x1002ee74        0x0
 .vfp11_veneer  0x1002ee74        0x0 linker stubs

.v4_bx          0x1002ee74        0x0
 .v4_bx         0x1002ee74        0x0 linker stubs

.iplt           0x1002ee74        0x0
 .iplt          0x1002ee74        0x0 CMakeFiles/payload.elf.dir/src/startup_MT6261x.S.obj

.ARM.extab
 *(.ARM.extab* .gnu.linkonce.armextab.*)
                0x1002ee74                __exidx_start = .

.ARM.exidx      0x1002ee74        0x8
 *(.ARM.exidx* .gnu.linkonce.armexidx.*)
 .ARM.exidx     0x1002ee74        0x8 c:/projects/ultra700/gcc/bin/../lib/gcc/arm-none-eabi/9.3.1\libgcc.a(_udivmoddi4.o)
                0x1002ee7c                __exidx_end = .

.rel.dyn        0x1002ee7c        0x0
 .rel.iplt      0x1002ee7c        0x0 CMakeFiles/payload.elf.dir/src/startup_MT6261x.S.obj
                0x1002ee7c                . = ALIGN (0x4)
                0x1002ee7c                __etext = .

.data           0x00000000     0x2360 load address 0x1002ee7c
                0x00000000                __data_start__ = .
 *(.isr_vectors)
 .isr_vectors   0x00000000       0x3c CMakeFiles/payload.elf.dir/src/startup_MT6261x.S.obj
                0x00000000                __isr_vectors
 *(vtable)
 *(.data*)
 .data          0x0000003c        0x0 CMakeFiles/payload.elf.dir/src/startup_MT6261x.S.obj
 .data          0x0000003c        0x0 CMakeFiles/payload.elf.dir/src/System/DZ09.c.obj
 .data          0x0000003c        0x0 CMakeFiles/payload.elf.dir/src/Lib/appheader.c.obj
 .data          0x0000003c        0x0 CMakeFiles/payload.elf.dir/src/System/asmutils.s.obj
 .data          0x0000003c        0x0 CMakeFiles/payload.elf.dir/src/System/exchandlers.s.obj
 .data          0x0000003c        0x0 CMakeFiles/payload.elf.dir/src/System/crc.c.obj
 .data          0x0000003c        0x0 CMakeFiles/payload.elf.dir/src/System/debug.c.obj
 .data          0x0000003c        0x0 CMakeFiles/payload.elf.dir/src/System/dlist.c.obj
 .data          0x0000003c        0x0 CMakeFiles/payload.elf.dir/src/System/evmngr.c.obj
 .data          0x0000003c        0x0 CMakeFiles/payload.elf.dir/src/System/fscache.c.obj
 .data          0x0000003c        0x0 CMakeFiles/payload.elf.dir/src/System/init.c.obj
 .data          0x0000003c        0x0 CMakeFiles/payload.elf.dir/src/System/lrtimer.c.obj
 .data          0x0000003c        0x0 CMakeFiles/payload.elf.dir/src/System/memory.c.obj
 .data          0x0000003c        0x0 CMakeFiles/payload.elf.dir/src/System/pmngr.c.obj
 .data          0x0000003c        0x0 CMakeFiles/payload.elf.dir/src/System/resource.c.obj
 .data          0x0000003c        0x0 CMakeFiles/payload.elf.dir/src/System/ringbuf.c.obj
 .data          0x0000003c        0x0 CMakeFiles/payload.elf.dir/src/System/sf.c.obj
 .data          0x0000003c        0x0 CMakeFiles/payload.elf.dir/src/System/tlsf.c.obj
 .data          0x0000003c        0x0 CMakeFiles/payload.elf.dir/src/System/utils.c.obj
 .data          0x0000003c        0x0 CMakeFiles/payload.elf.dir/src/Lib/MT6261/Drivers/auxadc.c.obj
 .data          0x0000003c        0x0 CMakeFiles/payload.elf.dir/src/Lib/MT6261/Drivers/afe.c.obj
 .data          0x0000003c        0x0 CMakeFiles/payload.elf.dir/src/Lib/MT6261/Drivers/emi.c.obj
 .data          0x0000003c        0x0 CMakeFiles/payload.elf.dir/src/Lib/MT6261/Drivers/gpio.c.obj
 .data          0x0000003c        0x0 CMakeFiles/payload.elf.dir/src/Lib/MT6261/Drivers/gpt.c.obj
 .data          0x0000003c        0x0 CMakeFiles/payload.elf.dir/src/Lib/MT6261/Drivers/lcdif.c.obj
 .data.LCDIF_LAYER
                0x0000003c       0x10 CMakeFiles/payload.elf.dir/src/Lib/MT6261/Drivers/lcdif.c.obj
                0x0000003c                LCDIF_LAYER
 .data          0x0000004c        0x0 CMakeFiles/payload.elf.dir/src/Lib/MT6261/Drivers/msdc.c.obj
 .data          0x0000004c        0x0 CMakeFiles/payload.elf.dir/src/Lib/MT6261/Drivers/nvic.c.obj
 .data          0x0000004c        0x0 CMakeFiles/payload.elf.dir/src/Lib/MT6261/Drivers/pctl.c.obj
 .data          0x0000004c        0x0 CMakeFiles/payload.elf.dir/src/Lib/MT6261/Drivers/pll.c.obj
 .data          0x0000004c        0x0 CMakeFiles/payload.elf.dir/src/Lib/MT6261/Drivers/pmu.c.obj
 .data          0x0000004c        0x0 CMakeFiles/payload.elf.dir/src/Lib/MT6261/Drivers/pwm.c.obj
 .data.PWMINFO  0x0000004c       0x40 CMakeFiles/payload.elf.dir/src/Lib/MT6261/Drivers/pwm.c.obj
 .data          0x0000008c        0x0 CMakeFiles/payload.elf.dir/src/Lib/MT6261/Drivers/rgu.c.obj
 .data          0x0000008c        0x0 CMakeFiles/payload.elf.dir/src/Lib/MT6261/Drivers/rtc.c.obj
 .data          0x0000008c        0x0 CMakeFiles/payload.elf.dir/src/Lib/MT6261/Drivers/sfi.c.obj
 .data          0x0000008c        0x0 CMakeFiles/payload.elf.dir/src/Lib/MT6261/Drivers/spi.c.obj
 .data          0x0000008c        0x0 CMakeFiles/payload.elf.dir/src/Lib/MT6261/Drivers/tcmcache.c.obj
 .data.AccRightsStr
                0x0000008c       0x20 CMakeFiles/payload.elf.dir/src/Lib/MT6261/Drivers/tcmcache.c.obj
                0x0000008c                AccRightsStr
 .data          0x000000ac        0x0 CMakeFiles/payload.elf.dir/src/Lib/MT6261/Drivers/usart.c.obj
 .data.USARTINFO
                0x000000ac       0x54 CMakeFiles/payload.elf.dir/src/Lib/MT6261/Drivers/usart.c.obj
                0x000000ac                USARTINFO
 .data          0x00000100        0x0 CMakeFiles/payload.elf.dir/src/Lib/MT6261/Drivers/usb.c.obj
 .data          0x00000100        0x0 CMakeFiles/payload.elf.dir/src/Lib/MT6261/Drivers/ustimer.c.obj
 .data          0x00000100        0x0 CMakeFiles/payload.elf.dir/src/Lib/USB/usb9.c.obj
 .data          0x00000100        0x0 CMakeFiles/payload.elf.dir/src/GUI/gdi.c.obj
 .data          0x00000100        0x0 CMakeFiles/payload.elf.dir/src/GUI/gdifont.c.obj
 .data          0x00000100        0x0 CMakeFiles/payload.elf.dir/src/GUI/gdiutils.c.obj
 .data          0x00000100        0x0 CMakeFiles/payload.elf.dir/src/GUI/gui.c.obj
 .data          0x00000100        0x0 CMakeFiles/payload.elf.dir/src/GUI/guibutton.c.obj
 .data          0x00000100        0x0 CMakeFiles/payload.elf.dir/src/GUI/guilabel.c.obj
 .data          0x00000100        0x0 CMakeFiles/payload.elf.dir/src/GUI/guiobject.c.obj
 .data          0x00000100        0x0 CMakeFiles/payload.elf.dir/src/GUI/guiwin.c.obj
 .data          0x00000100        0x0 CMakeFiles/payload.elf.dir/src/Application/appinit.c.obj
 .data.msg.7331
                0x00000100        0xa CMakeFiles/payload.elf.dir/src/Application/appinit.c.obj
 .data          0x0000010a        0x0 CMakeFiles/payload.elf.dir/src/Application/audio_note.c.obj
 .data          0x0000010a        0x0 CMakeFiles/payload.elf.dir/src/Application/Drivers/backlight.c.obj
 .data          0x0000010a        0x0 CMakeFiles/payload.elf.dir/src/Application/Drivers/delay.c.obj
 .data          0x0000010a        0x0 CMakeFiles/payload.elf.dir/src/Application/Drivers/dflib.c.obj
 *fill*         0x0000010a        0x2 
 .data.GD25LQ64PRE
                0x0000010c        0xb CMakeFiles/payload.elf.dir/src/Application/Drivers/dflib.c.obj
                0x0000010c                GD25LQ64PRE
 *fill*         0x00000117        0x1 
 .data.GD25LQ64POST
                0x00000118        0x4 CMakeFiles/payload.elf.dir/src/Application/Drivers/dflib.c.obj
                0x00000118                GD25LQ64POST
 .data          0x0000011c        0x0 CMakeFiles/payload.elf.dir/src/Application/Drivers/ft6236.c.obj
 .data          0x0000011c        0x0 CMakeFiles/payload.elf.dir/src/Application/Drivers/ili9341.c.obj
 .data          0x0000011c        0x0 CMakeFiles/payload.elf.dir/src/Application/Drivers/simple_keypad.c.obj
 .data.key_names
                0x0000011c      0x140 CMakeFiles/payload.elf.dir/src/Application/Drivers/simple_keypad.c.obj
 .data.idle_mem
                0x0000025c        0xa CMakeFiles/payload.elf.dir/src/Application/Drivers/simple_keypad.c.obj
 .data.learn_mode
                0x00000266        0x1 CMakeFiles/payload.elf.dir/src/Application/Drivers/simple_keypad.c.obj
 .data.visual_debug
                0x00000267        0x1 CMakeFiles/payload.elf.dir/src/Application/Drivers/simple_keypad.c.obj
 .data          0x00000268        0x0 CMakeFiles/payload.elf.dir/src/Application/Drivers/single_led.c.obj
 .data          0x00000268        0x0 CMakeFiles/payload.elf.dir/src/Application/Drivers/sdcard.c.obj
 .data          0x00000268        0x0 CMakeFiles/payload.elf.dir/src/Application/pcm_player.c.obj
 .data          0x00000268        0x0 CMakeFiles/payload.elf.dir/src/Application/Drivers/usbdevice_cdc.c.obj
 .data.CDC_LineCoding
                0x00000268        0x8 CMakeFiles/payload.elf.dir/src/Application/Drivers/usbdevice_cdc.c.obj
 .data          0x00000270        0x0 c:/projects/ultra700/gcc/bin/../lib/gcc/arm-none-eabi/9.3.1/../../../../arm-none-eabi/lib\libc.a(lib_a-fflush.o)
 .data          0x00000270        0x0 c:/projects/ultra700/gcc/bin/../lib/gcc/arm-none-eabi/9.3.1/../../../../arm-none-eabi/lib\libc.a(lib_a-findfp.o)
 .data          0x00000270        0x0 c:/projects/ultra700/gcc/bin/../lib/gcc/arm-none-eabi/9.3.1/../../../../arm-none-eabi/lib\libc.a(lib_a-freer.o)
 .data          0x00000270        0x0 c:/projects/ultra700/gcc/bin/../lib/gcc/arm-none-eabi/9.3.1/../../../../arm-none-eabi/lib\libc.a(lib_a-fwalk.o)
 .data          0x00000270        0x0 c:/projects/ultra700/gcc/bin/../lib/gcc/arm-none-eabi/9.3.1/../../../../arm-none-eabi/lib\libc.a(lib_a-impure.o)
 .data._impure_ptr
                0x00000270        0x4 c:/projects/ultra700/gcc/bin/../lib/gcc/arm-none-eabi/9.3.1/../../../../arm-none-eabi/lib\libc.a(lib_a-impure.o)
                0x00000270                _impure_ptr
 *fill*         0x00000274        0x4 
 .data.impure_data
                0x00000278      0x428 c:/projects/ultra700/gcc/bin/../lib/gcc/arm-none-eabi/9.3.1/../../../../arm-none-eabi/lib\libc.a(lib_a-impure.o)
 .data          0x000006a0        0x0 c:/projects/ultra700/gcc/bin/../lib/gcc/arm-none-eabi/9.3.1/../../../../arm-none-eabi/lib\libc.a(lib_a-lock.o)
 .data          0x000006a0        0x0 c:/projects/ultra700/gcc/bin/../lib/gcc/arm-none-eabi/9.3.1/../../../../arm-none-eabi/lib\libc.a(lib_a-mallocr.o)
 .data.__malloc_av_
                0x000006a0      0x408 c:/projects/ultra700/gcc/bin/../lib/gcc/arm-none-eabi/9.3.1/../../../../arm-none-eabi/lib\libc.a(lib_a-mallocr.o)
                0x000006a0                __malloc_av_
 .data.__malloc_sbrk_base
                0x00000aa8        0x4 c:/projects/ultra700/gcc/bin/../lib/gcc/arm-none-eabi/9.3.1/../../../../arm-none-eabi/lib\libc.a(lib_a-mallocr.o)
                0x00000aa8                __malloc_sbrk_base
 .data.__malloc_trim_threshold
                0x00000aac        0x4 c:/projects/ultra700/gcc/bin/../lib/gcc/arm-none-eabi/9.3.1/../../../../arm-none-eabi/lib\libc.a(lib_a-mallocr.o)
                0x00000aac                __malloc_trim_threshold
 .data          0x00000ab0        0x0 c:/projects/ultra700/gcc/bin/../lib/gcc/arm-none-eabi/9.3.1/../../../../arm-none-eabi/lib\libc.a(lib_a-memcmp.o)
 .data          0x00000ab0        0x0 c:/projects/ultra700/gcc/bin/../lib/gcc/arm-none-eabi/9.3.1/../../../../arm-none-eabi/lib\libc.a(lib_a-memcpy-stub.o)
 .data          0x00000ab0        0x0 c:/projects/ultra700/gcc/bin/../lib/gcc/arm-none-eabi/9.3.1/../../../../arm-none-eabi/lib\libc.a(lib_a-memset.o)
 .data          0x00000ab0        0x0 c:/projects/ultra700/gcc/bin/../lib/gcc/arm-none-eabi/9.3.1/../../../../arm-none-eabi/lib\libc.a(lib_a-mlock.o)
 .data          0x00000ab0        0x0 c:/projects/ultra700/gcc/bin/../lib/gcc/arm-none-eabi/9.3.1/../../../../arm-none-eabi/lib\libc.a(lib_a-printf.o)
 .data          0x00000ab0        0x0 c:/projects/ultra700/gcc/bin/../lib/gcc/arm-none-eabi/9.3.1/../../../../arm-none-eabi/lib\libc.a(lib_a-sbrkr.o)
 .data          0x00000ab0        0x0 c:/projects/ultra700/gcc/bin/../lib/gcc/arm-none-eabi/9.3.1/../../../../arm-none-eabi/lib\libc.a(lib_a-stdio.o)
 .data          0x00000ab0        0x0 c:/projects/ultra700/gcc/bin/../lib/gcc/arm-none-eabi/9.3.1/../../../../arm-none-eabi/lib\libc.a(lib_a-strlen-stub.o)
 .data          0x00000ab0        0x0 c:/projects/ultra700/gcc/bin/../lib/gcc/arm-none-eabi/9.3.1/../../../../arm-none-eabi/lib\libc.a(lib_a-vfprintf.o)
 .data          0x00000ab0        0x0 c:/projects/ultra700/gcc/bin/../lib/gcc/arm-none-eabi/9.3.1/../../../../arm-none-eabi/lib\libc.a(lib_a-vsnprintf.o)
 .data          0x00000ab0        0x0 c:/projects/ultra700/gcc/bin/../lib/gcc/arm-none-eabi/9.3.1/../../../../arm-none-eabi/lib\libc.a(lib_a-writer.o)
 .data          0x00000ab0        0x0 c:/projects/ultra700/gcc/bin/../lib/gcc/arm-none-eabi/9.3.1/../../../../arm-none-eabi/lib\libc.a(lib_a-wsetup.o)
 .data          0x00000ab0        0x0 c:/projects/ultra700/gcc/bin/../lib/gcc/arm-none-eabi/9.3.1/../../../../arm-none-eabi/lib\libc.a(lib_a-closer.o)
 .data          0x00000ab0        0x0 c:/projects/ultra700/gcc/bin/../lib/gcc/arm-none-eabi/9.3.1/../../../../arm-none-eabi/lib\libc.a(lib_a-dtoa.o)
 .data          0x00000ab0        0x0 c:/projects/ultra700/gcc/bin/../lib/gcc/arm-none-eabi/9.3.1/../../../../arm-none-eabi/lib\libc.a(lib_a-fclose.o)
 .data          0x00000ab0        0x0 c:/projects/ultra700/gcc/bin/../lib/gcc/arm-none-eabi/9.3.1/../../../../arm-none-eabi/lib\libc.a(lib_a-localeconv.o)
 .data          0x00000ab0        0x0 c:/projects/ultra700/gcc/bin/../lib/gcc/arm-none-eabi/9.3.1/../../../../arm-none-eabi/lib\libc.a(lib_a-lseekr.o)
 .data          0x00000ab0        0x0 c:/projects/ultra700/gcc/bin/../lib/gcc/arm-none-eabi/9.3.1/../../../../arm-none-eabi/lib\libc.a(lib_a-makebuf.o)
 .data          0x00000ab0        0x0 c:/projects/ultra700/gcc/bin/../lib/gcc/arm-none-eabi/9.3.1/../../../../arm-none-eabi/lib\libc.a(lib_a-memchr-stub.o)
 .data          0x00000ab0        0x0 c:/projects/ultra700/gcc/bin/../lib/gcc/arm-none-eabi/9.3.1/../../../../arm-none-eabi/lib\libc.a(lib_a-mprec.o)
 .data          0x00000ab0        0x0 c:/projects/ultra700/gcc/bin/../lib/gcc/arm-none-eabi/9.3.1/../../../../arm-none-eabi/lib\libc.a(lib_a-readr.o)
 .data          0x00000ab0        0x0 c:/projects/ultra700/gcc/bin/../lib/gcc/arm-none-eabi/9.3.1/../../../../arm-none-eabi/lib\libc.a(lib_a-reent.o)
 .data          0x00000ab0        0x0 c:/projects/ultra700/gcc/bin/../lib/gcc/arm-none-eabi/9.3.1/../../../../arm-none-eabi/lib\libc.a(lib_a-s_frexp.o)
 .data          0x00000ab0        0x0 c:/projects/ultra700/gcc/bin/../lib/gcc/arm-none-eabi/9.3.1/../../../../arm-none-eabi/lib\libc.a(lib_a-strncpy.o)
 .data          0x00000ab0        0x0 c:/projects/ultra700/gcc/bin/../lib/gcc/arm-none-eabi/9.3.1/../../../../arm-none-eabi/lib\libc.a(lib_a-svfprintf.o)
 .data          0x00000ab0        0x0 c:/projects/ultra700/gcc/bin/../lib/gcc/arm-none-eabi/9.3.1/../../../../arm-none-eabi/lib\libc.a(lib_a-vfiprintf.o)
 .data          0x00000ab0        0x0 c:/projects/ultra700/gcc/bin/../lib/gcc/arm-none-eabi/9.3.1/../../../../arm-none-eabi/lib\libc.a(lib_a-assert.o)
 .data          0x00000ab0        0x0 c:/projects/ultra700/gcc/bin/../lib/gcc/arm-none-eabi/9.3.1/../../../../arm-none-eabi/lib\libc.a(lib_a-callocr.o)
 .data          0x00000ab0        0x0 c:/projects/ultra700/gcc/bin/../lib/gcc/arm-none-eabi/9.3.1/../../../../arm-none-eabi/lib\libc.a(lib_a-fiprintf.o)
 .data          0x00000ab0        0x0 c:/projects/ultra700/gcc/bin/../lib/gcc/arm-none-eabi/9.3.1/../../../../arm-none-eabi/lib\libc.a(lib_a-fputwc.o)
 .data          0x00000ab0        0x0 c:/projects/ultra700/gcc/bin/../lib/gcc/arm-none-eabi/9.3.1/../../../../arm-none-eabi/lib\libc.a(lib_a-fstatr.o)
 .data          0x00000ab0        0x0 c:/projects/ultra700/gcc/bin/../lib/gcc/arm-none-eabi/9.3.1/../../../../arm-none-eabi/lib\libc.a(lib_a-fvwrite.o)
 .data          0x00000ab0        0x0 c:/projects/ultra700/gcc/bin/../lib/gcc/arm-none-eabi/9.3.1/../../../../arm-none-eabi/lib\libc.a(lib_a-isattyr.o)
 .data          0x00000ab0        0x0 c:/projects/ultra700/gcc/bin/../lib/gcc/arm-none-eabi/9.3.1/../../../../arm-none-eabi/lib\libc.a(lib_a-locale.o)
 .data.__global_locale
                0x00000ab0      0x16c c:/projects/ultra700/gcc/bin/../lib/gcc/arm-none-eabi/9.3.1/../../../../arm-none-eabi/lib\libc.a(lib_a-locale.o)
                0x00000ab0                __global_locale
 .data          0x00000c1c        0x0 c:/projects/ultra700/gcc/bin/../lib/gcc/arm-none-eabi/9.3.1/../../../../arm-none-eabi/lib\libc.a(lib_a-mbtowc_r.o)
 .data          0x00000c1c        0x0 c:/projects/ultra700/gcc/bin/../lib/gcc/arm-none-eabi/9.3.1/../../../../arm-none-eabi/lib\libc.a(lib_a-memmove.o)
 .data          0x00000c1c        0x0 c:/projects/ultra700/gcc/bin/../lib/gcc/arm-none-eabi/9.3.1/../../../../arm-none-eabi/lib\libc.a(lib_a-reallocr.o)
 .data          0x00000c1c        0x0 c:/projects/ultra700/gcc/bin/../lib/gcc/arm-none-eabi/9.3.1/../../../../arm-none-eabi/lib\libc.a(lib_a-strcmp.o)
 .data          0x00000c1c        0x0 c:/projects/ultra700/gcc/bin/../lib/gcc/arm-none-eabi/9.3.1/../../../../arm-none-eabi/lib\libc.a(lib_a-svfiprintf.o)
 .data          0x00000c1c        0x0 c:/projects/ultra700/gcc/bin/../lib/gcc/arm-none-eabi/9.3.1/../../../../arm-none-eabi/lib\libc.a(lib_a-wbuf.o)
 .data          0x00000c1c        0x0 c:/projects/ultra700/gcc/bin/../lib/gcc/arm-none-eabi/9.3.1/../../../../arm-none-eabi/lib\libc.a(lib_a-wcrtomb.o)
 .data          0x00000c1c        0x0 c:/projects/ultra700/gcc/bin/../lib/gcc/arm-none-eabi/9.3.1/../../../../arm-none-eabi/lib\libc.a(lib_a-wctomb_r.o)
 .data          0x00000c1c        0x0 c:/projects/ultra700/gcc/bin/../lib/gcc/arm-none-eabi/9.3.1/../../../../arm-none-eabi/lib\libc.a(lib_a-abort.o)
 .data          0x00000c1c        0x0 c:/projects/ultra700/gcc/bin/../lib/gcc/arm-none-eabi/9.3.1/../../../../arm-none-eabi/lib\libc.a(lib_a-ctype_.o)
 .data          0x00000c1c        0x0 c:/projects/ultra700/gcc/bin/../lib/gcc/arm-none-eabi/9.3.1/../../../../arm-none-eabi/lib\libc.a(lib_a-signal.o)
 .data          0x00000c1c        0x0 c:/projects/ultra700/gcc/bin/../lib/gcc/arm-none-eabi/9.3.1/../../../../arm-none-eabi/lib\libc.a(lib_a-signalr.o)
 .data          0x00000c1c        0x0 c:/projects/ultra700/gcc/bin/../lib/gcc/arm-none-eabi/9.3.1\libgcc.a(_arm_muldf3.o)
 .data          0x00000c1c        0x0 c:/projects/ultra700/gcc/bin/../lib/gcc/arm-none-eabi/9.3.1\libgcc.a(_udivsi3.o)
 .data          0x00000c1c        0x0 c:/projects/ultra700/gcc/bin/../lib/gcc/arm-none-eabi/9.3.1\libgcc.a(_divsi3.o)
 .data          0x00000c1c        0x0 c:/projects/ultra700/gcc/bin/../lib/gcc/arm-none-eabi/9.3.1\libgcc.a(_dvmd_tls.o)
 .data          0x00000c1c        0x0 c:/projects/ultra700/gcc/bin/../lib/gcc/arm-none-eabi/9.3.1\libgcc.a(_arm_addsubdf3.o)
 .data          0x00000c1c        0x0 c:/projects/ultra700/gcc/bin/../lib/gcc/arm-none-eabi/9.3.1\libgcc.a(_arm_muldivdf3.o)
 .data          0x00000c1c        0x0 c:/projects/ultra700/gcc/bin/../lib/gcc/arm-none-eabi/9.3.1\libgcc.a(_arm_cmpdf2.o)
 .data          0x00000c1c        0x0 c:/projects/ultra700/gcc/bin/../lib/gcc/arm-none-eabi/9.3.1\libgcc.a(_arm_unorddf2.o)
 .data          0x00000c1c        0x0 c:/projects/ultra700/gcc/bin/../lib/gcc/arm-none-eabi/9.3.1\libgcc.a(_arm_fixdfsi.o)
 .data          0x00000c1c        0x0 c:/projects/ultra700/gcc/bin/../lib/gcc/arm-none-eabi/9.3.1\libgcc.a(_aeabi_uldivmod.o)
 .data          0x00000c1c        0x0 c:/projects/ultra700/gcc/bin/../lib/gcc/arm-none-eabi/9.3.1\libgcc.a(_udivmoddi4.o)
 .data          0x00000c1c        0x0 c:/projects/ultra700/gcc/bin/../lib/gcc/arm-none-eabi/9.3.1\libgcc.a(_clzdi2.o)
 .data          0x00000c1c        0x0 c:/projects/ultra700/gcc/bin/../lib/gcc/arm-none-eabi/9.3.1\libgcc.a(_clzsi2.o)
 .data          0x00000c1c        0x0 c:/projects/ultra700/gcc/bin/../lib/gcc/arm-none-eabi/9.3.1/../../../../arm-none-eabi/lib\libnosys.a(close.o)
 .data          0x00000c1c        0x0 c:/projects/ultra700/gcc/bin/../lib/gcc/arm-none-eabi/9.3.1/../../../../arm-none-eabi/lib\libnosys.a(fstat.o)
 .data          0x00000c1c        0x0 c:/projects/ultra700/gcc/bin/../lib/gcc/arm-none-eabi/9.3.1/../../../../arm-none-eabi/lib\libnosys.a(getpid.o)
 .data          0x00000c1c        0x0 c:/projects/ultra700/gcc/bin/../lib/gcc/arm-none-eabi/9.3.1/../../../../arm-none-eabi/lib\libnosys.a(isatty.o)
 .data          0x00000c1c        0x0 c:/projects/ultra700/gcc/bin/../lib/gcc/arm-none-eabi/9.3.1/../../../../arm-none-eabi/lib\libnosys.a(kill.o)
 .data          0x00000c1c        0x0 c:/projects/ultra700/gcc/bin/../lib/gcc/arm-none-eabi/9.3.1/../../../../arm-none-eabi/lib\libnosys.a(lseek.o)
 .data          0x00000c1c        0x0 c:/projects/ultra700/gcc/bin/../lib/gcc/arm-none-eabi/9.3.1/../../../../arm-none-eabi/lib\libnosys.a(read.o)
 .data          0x00000c1c        0x0 c:/projects/ultra700/gcc/bin/../lib/gcc/arm-none-eabi/9.3.1/../../../../arm-none-eabi/lib\libnosys.a(sbrk.o)
 .data          0x00000c1c        0x0 c:/projects/ultra700/gcc/bin/../lib/gcc/arm-none-eabi/9.3.1/../../../../arm-none-eabi/lib\libnosys.a(_exit.o)
 .data          0x00000c1c        0x0 C:/Projects/ultra700/src/GUI/Resource/fontlib.a(courier20h.o)
                0x00000c1c                . = ALIGN (0x4)
                [!provide]                PROVIDE (__preinit_array_start = .)
 *(.preinit_array)
                [!provide]                PROVIDE (__preinit_array_end = .)
                0x00000c1c                . = ALIGN (0x4)
                [!provide]                PROVIDE (__init_array_start = .)
 *(SORT_BY_NAME(.init_array.*))
 *(.init_array)
                [!provide]                PROVIDE (__init_array_end = .)
                0x00000c1c                . = ALIGN (0x4)
                [!provide]                PROVIDE (__fini_array_start = .)
 *(SORT_BY_NAME(.fini_array.*))
 *(.fini_array)
                [!provide]                PROVIDE (__fini_array_end = .)
                0x00000c1c                . = ALIGN (0x4)
 *(.ramfunc*)
 .ramfunc       0x00000c1c      0xb5c CMakeFiles/payload.elf.dir/src/System/sf.c.obj
                0x00000f80                SF_DevReadID
                0x00000fd0                SF_WriteStatus
                0x00001084                SF_Read
                0x00001148                SF_Write
                0x000012c4                SF_Erase
 .ramfunc       0x00001778      0xbb8 CMakeFiles/payload.elf.dir/src/Lib/MT6261/Drivers/sfi.c.obj
                0x00001a18                SFI_GetInterfaceMode
                0x00001a74                SFI_DeviceCommandRead
                0x00001c0c                SFI_DeviceCommandWrite
                0x00001dac                SFI_DeviceCmdAddr3Write
                0x00001f94                SFI_DeviceCmdAddr4Write
                0x000021a0                SFI_ConfigureInterface
 .ramfunc.__stub
                0x00002330       0x30 linker stubs
                0x00002360                __data_end__ = .

.igot.plt       0x00002360        0x0 load address 0x100311dc
 .igot.plt      0x00002360        0x0 CMakeFiles/payload.elf.dir/src/startup_MT6261x.S.obj

.bss            0x00002360     0x11e4 load address 0x100311e0
                0x00002360                __bss_start__ = .
 *(.bss*)
 .bss.EventsList
                0x00002360        0x4 CMakeFiles/payload.elf.dir/src/System/evmngr.c.obj
 .bss.mpool     0x00002364        0x4 CMakeFiles/payload.elf.dir/src/System/tlsf.c.obj
 .bss.GPTStatus
                0x00002368       0x14 CMakeFiles/payload.elf.dir/src/Lib/MT6261/Drivers/gpt.c.obj
 .bss.IRQHandlers
                0x0000237c       0xd4 CMakeFiles/payload.elf.dir/src/Lib/MT6261/Drivers/nvic.c.obj
 .bss.EINTHandlers
                0x00002450       0x64 CMakeFiles/payload.elf.dir/src/Lib/MT6261/Drivers/nvic.c.obj
 .bss.AIRQHandlers
                0x000024b4       0x10 CMakeFiles/payload.elf.dir/src/Lib/MT6261/Drivers/nvic.c.obj
 .bss.AEINTHandlers
                0x000024c4       0x38 CMakeFiles/payload.elf.dir/src/Lib/MT6261/Drivers/nvic.c.obj
 .bss.PrevChargerState
                0x000024fc        0x1 CMakeFiles/payload.elf.dir/src/Lib/MT6261/Drivers/pmu.c.obj
 .bss.BatteryCharging
                0x000024fd        0x1 CMakeFiles/payload.elf.dir/src/Lib/MT6261/Drivers/pmu.c.obj
 *fill*         0x000024fe        0x2 
 .bss.ChargerTimer
                0x00002500        0x4 CMakeFiles/payload.elf.dir/src/Lib/MT6261/Drivers/pmu.c.obj
 .bss.VBat      0x00002504        0x2 CMakeFiles/payload.elf.dir/src/Lib/MT6261/Drivers/pmu.c.obj
 .bss.ISense    0x00002506        0x2 CMakeFiles/payload.elf.dir/src/Lib/MT6261/Drivers/pmu.c.obj
 .bss.ChargeOnDebounce
                0x00002508        0x4 CMakeFiles/payload.elf.dir/src/Lib/MT6261/Drivers/pmu.c.obj
 .bss.RechargeTimeout
                0x0000250c        0x4 CMakeFiles/payload.elf.dir/src/Lib/MT6261/Drivers/pmu.c.obj
 .bss.PWRKEYAppHandler
                0x00002510        0x4 CMakeFiles/payload.elf.dir/src/Lib/MT6261/Drivers/pmu.c.obj
 .bss.ChargeLevel
                0x00002514        0x2 CMakeFiles/payload.elf.dir/src/Lib/MT6261/Drivers/pmu.c.obj
 .bss.FirstMeasurememnt
                0x00002516        0x1 CMakeFiles/payload.elf.dir/src/Lib/MT6261/Drivers/pmu.c.obj
 *fill*         0x00002517        0x1 
 .bss.MathVBatArray
                0x00002518      0x100 CMakeFiles/payload.elf.dir/src/Lib/MT6261/Drivers/pmu.c.obj
 .bss.MathISenseArray
                0x00002618      0x100 CMakeFiles/payload.elf.dir/src/Lib/MT6261/Drivers/pmu.c.obj
 .bss.MpuInfo   0x00002718       0xc4 CMakeFiles/payload.elf.dir/src/Lib/MT6261/Drivers/tcmcache.c.obj
 .bss.USBDeviceState
                0x000027dc        0x1 CMakeFiles/payload.elf.dir/src/Lib/MT6261/Drivers/usb.c.obj
 *fill*         0x000027dd        0x3 
 .bss.SetupBuffer
                0x000027e0        0x8 CMakeFiles/payload.elf.dir/src/Lib/MT6261/Drivers/usb.c.obj
 .bss.DevInterface
                0x000027e8        0x4 CMakeFiles/payload.elf.dir/src/Lib/USB/usb9.c.obj
 .bss.U9Buffer  0x000027ec        0x2 CMakeFiles/payload.elf.dir/src/Lib/USB/usb9.c.obj
 *fill*         0x000027ee        0x2 
 .bss.ButtonTimer
                0x000027f0        0x4 CMakeFiles/payload.elf.dir/src/GUI/guibutton.c.obj
 .bss.ArepeatButton
                0x000027f4        0x4 CMakeFiles/payload.elf.dir/src/GUI/guibutton.c.obj
 .bss.ButtonDelayDone
                0x000027f8        0x1 CMakeFiles/payload.elf.dir/src/GUI/guibutton.c.obj
 *fill*         0x000027f9        0x3 
 .bss.ActiveObject
                0x000027fc        0x4 CMakeFiles/payload.elf.dir/src/GUI/guiobject.c.obj
 .bss.g_cdcEventer
                0x00002800       0x10 CMakeFiles/payload.elf.dir/src/Application/appinit.c.obj
 .bss.g_cdcConnected
                0x00002810        0x1 CMakeFiles/payload.elf.dir/src/Application/appinit.c.obj
 *fill*         0x00002811        0x3 
 .bss.s_sector0.7414
                0x00002814      0x200 CMakeFiles/payload.elf.dir/src/Application/appinit.c.obj
 .bss.g_audio_initialized
                0x00002a14        0x1 CMakeFiles/payload.elf.dir/src/Application/audio_note.c.obj
 .bss.initialized
                0x00002a15        0x1 CMakeFiles/payload.elf.dir/src/Application/Drivers/simple_keypad.c.obj
 .bss.scanning  0x00002a16        0x1 CMakeFiles/payload.elf.dir/src/Application/Drivers/simple_keypad.c.obj
 *fill*         0x00002a17        0x1 
 .bss.scan_timer
                0x00002a18        0x4 CMakeFiles/payload.elf.dir/src/Application/Drivers/simple_keypad.c.obj
 .bss.current_event
                0x00002a1c        0x4 CMakeFiles/payload.elf.dir/src/Application/Drivers/simple_keypad.c.obj
 .bss.event_pending
                0x00002a20        0x1 CMakeFiles/payload.elf.dir/src/Application/Drivers/simple_keypad.c.obj
 *fill*         0x00002a21        0x3 
 .bss.last_state
                0x00002a24       0x50 CMakeFiles/payload.elf.dir/src/Application/Drivers/simple_keypad.c.obj
 .bss.idle_valid
                0x00002a74        0x1 CMakeFiles/payload.elf.dir/src/Application/Drivers/simple_keypad.c.obj
 .bss.use_baseline_filter
                0x00002a75        0x1 CMakeFiles/payload.elf.dir/src/Application/Drivers/simple_keypad.c.obj
 .bss.flash_led_state
                0x00002a76        0x1 CMakeFiles/payload.elf.dir/src/Application/Drivers/single_led.c.obj
 .bss.phone_led_state
                0x00002a77        0x1 CMakeFiles/payload.elf.dir/src/Application/Drivers/single_led.c.obj
 .bss.blue_led_state
                0x00002a78        0x1 CMakeFiles/payload.elf.dir/src/Application/Drivers/single_led.c.obj
 *fill*         0x00002a79        0x3 
 .bss.g_inited  0x00002a7c        0x4 CMakeFiles/payload.elf.dir/src/Application/pcm_player.c.obj
 .bss.g_last_rate
                0x00002a80        0x4 CMakeFiles/payload.elf.dir/src/Application/pcm_player.c.obj
 .bss.tmp.7341  0x00002a84      0x800 CMakeFiles/payload.elf.dir/src/Application/pcm_player.c.obj
 .bss.USB_CDC_Interface
                0x00003284       0x28 CMakeFiles/payload.elf.dir/src/Application/Drivers/usbdevice_cdc.c.obj
 .bss.IntEventerInfo
                0x000032ac        0x4 CMakeFiles/payload.elf.dir/src/Application/Drivers/usbdevice_cdc.c.obj
 .bss.CDC_DeviceConfig
                0x000032b0        0x1 CMakeFiles/payload.elf.dir/src/Application/Drivers/usbdevice_cdc.c.obj
 *fill*         0x000032b1        0x1 
 .bss.CDC_DeviceStatus
                0x000032b2        0x2 CMakeFiles/payload.elf.dir/src/Application/Drivers/usbdevice_cdc.c.obj
 .bss.USB_CDC_Connected
                0x000032b4        0x1 CMakeFiles/payload.elf.dir/src/Application/Drivers/usbdevice_cdc.c.obj
 .bss.USB_CDC_WaitTXAck
                0x000032b5        0x1 CMakeFiles/payload.elf.dir/src/Application/Drivers/usbdevice_cdc.c.obj
 .bss.USB_CDC_TXTimeout
                0x000032b6        0x1 CMakeFiles/payload.elf.dir/src/Application/Drivers/usbdevice_cdc.c.obj
 .bss.CDCInterfaceInitialized
                0x000032b7        0x1 CMakeFiles/payload.elf.dir/src/Application/Drivers/usbdevice_cdc.c.obj
 .bss.CDC_OUTBuffer
                0x000032b8       0x40 CMakeFiles/payload.elf.dir/src/Application/Drivers/usbdevice_cdc.c.obj
 .bss.CDC_OUTRingBuffer
                0x000032f8        0x4 CMakeFiles/payload.elf.dir/src/Application/Drivers/usbdevice_cdc.c.obj
 .bss.CDC_TimeoutTimer
                0x000032fc        0x4 CMakeFiles/payload.elf.dir/src/Application/Drivers/usbdevice_cdc.c.obj
 .bss.CDC_PrevTransmitAmount
                0x00003300        0x4 CMakeFiles/payload.elf.dir/src/Application/Drivers/usbdevice_cdc.c.obj
 .bss.__malloc_current_mallinfo
                0x00003304       0x28 c:/projects/ultra700/gcc/bin/../lib/gcc/arm-none-eabi/9.3.1/../../../../arm-none-eabi/lib\libc.a(lib_a-mallocr.o)
                0x00003304                __malloc_current_mallinfo
 .bss.__malloc_max_sbrked_mem
                0x0000332c        0x4 c:/projects/ultra700/gcc/bin/../lib/gcc/arm-none-eabi/9.3.1/../../../../arm-none-eabi/lib\libc.a(lib_a-mallocr.o)
                0x0000332c                __malloc_max_sbrked_mem
 .bss.__malloc_max_total_mem
                0x00003330        0x4 c:/projects/ultra700/gcc/bin/../lib/gcc/arm-none-eabi/9.3.1/../../../../arm-none-eabi/lib\libc.a(lib_a-mallocr.o)
                0x00003330                __malloc_max_total_mem
 .bss.__malloc_top_pad
                0x00003334        0x4 c:/projects/ultra700/gcc/bin/../lib/gcc/arm-none-eabi/9.3.1/../../../../arm-none-eabi/lib\libc.a(lib_a-mallocr.o)
                0x00003334                __malloc_top_pad
 .bss.heap_end.4144
                0x00003338        0x4 c:/projects/ultra700/gcc/bin/../lib/gcc/arm-none-eabi/9.3.1/../../../../arm-none-eabi/lib\libnosys.a(sbrk.o)
 *(COMMON)
 COMMON         0x0000333c        0x4 CMakeFiles/payload.elf.dir/src/System/lrtimer.c.obj
                0x0000333c                TimersList
 COMMON         0x00003340        0xc CMakeFiles/payload.elf.dir/src/System/sf.c.obj
                0x00003340                FlashCapacity
                0x00003344                SFI_DeviceCmdAddrWrite
                0x00003348                FlashConfig
 COMMON         0x0000334c       0x8c CMakeFiles/payload.elf.dir/src/Lib/MT6261/Drivers/lcdif.c.obj
                0x0000334c                LCDIFQueue
                0x00003350                LCDScreen
 COMMON         0x000033d8       0x78 CMakeFiles/payload.elf.dir/src/Lib/MT6261/Drivers/msdc.c.obj
                0x000033d8                sd_ctx
 COMMON         0x00003450       0xac CMakeFiles/payload.elf.dir/src/Lib/MT6261/Drivers/usb.c.obj
                0x00003450                EPState
                0x000034f8                USB_OnDeviceActive
 COMMON         0x000034fc        0x1 CMakeFiles/payload.elf.dir/src/GUI/gui.c.obj
                0x000034fc                GUILocked
 *fill*         0x000034fd        0x3 
 COMMON         0x00003500       0x10 CMakeFiles/payload.elf.dir/src/GUI/guiwin.c.obj
                0x00003500                GUILayer
 COMMON         0x00003510        0xc CMakeFiles/payload.elf.dir/src/Application/Drivers/backlight.c.obj
                0x00003510                BLState
                0x00003518                BLReduceTimer
 COMMON         0x0000351c       0x21 c:/projects/ultra700/gcc/bin/../lib/gcc/arm-none-eabi/9.3.1/../../../../arm-none-eabi/lib\libc.a(lib_a-lock.o)
                0x0000351c                __lock___atexit_recursive_mutex
                0x00003520                __lock___arc4random_mutex
                0x00003524                __lock___env_recursive_mutex
                0x00003528                __lock___sinit_recursive_mutex
                0x0000352c                __lock___malloc_recursive_mutex
                0x00003530                __lock___at_quick_exit_mutex
                0x00003534                __lock___dd_hash_mutex
                0x00003538                __lock___tz_mutex
                0x0000353c                __lock___sfp_recursive_mutex
 *fill*         0x0000353d        0x3 
 COMMON         0x00003540        0x4 c:/projects/ultra700/gcc/bin/../lib/gcc/arm-none-eabi/9.3.1/../../../../arm-none-eabi/lib\libc.a(lib_a-reent.o)
                0x00003540                errno
                0x00003544                __bss_end__ = .

.noinit         0x00003548   0x300000 load address 0x100323c8
                0x00003548                __noinit_start__ = .
 *(.noinit*)
 .noinit        0x00003548   0x300000 CMakeFiles/payload.elf.dir/src/System/memory.c.obj
                0x00303548                __noinit_end__ = .

.heap           0x00303548      0xc00
                0x00303548                __end__ = .
                0x00303548                end = __end__
 *(.heap*)
 .heap          0x00303548      0xc00 CMakeFiles/payload.elf.dir/src/startup_MT6261x.S.obj
                0x00303548                __heap_base
                0x00304148                __heap_limit
                0x00304148                __HeapLimit = .
                0x00400000                __StackTop = (ORIGIN (RAM) + LENGTH (RAM))
                0x003ffc00                __StackLimit = (__StackTop - SUMM_StackSz)

.stack_dummy    0x003ffc00      0x400
 *(.stack)
 .stack         0x003ffc00      0x400 CMakeFiles/payload.elf.dir/src/startup_MT6261x.S.obj
                0x003ffc00                __stack_limit
                0x00400000                __stack_top
                0x7000b000                __IntStackTop = (ORIGIN (TCM) + LENGTH (TCM))
                0x70009000                __IntStackLimit = (__IntStackTop - SUMM_Int_StackSz)

.int_stack_dummy
                0x70009000     0x2000
 *(.intstack)
 .intstack      0x70009000     0x2000 CMakeFiles/payload.elf.dir/src/startup_MT6261x.S.obj
                0x70009000                __int_stack_limit
                0x7000b000                __int_stack_top
                0x10006000                __ROMImageBase = ORIGIN (ROM)
                0x100311dc                __ROMImageLimit = ((__etext + __data_end__) - __data_start__)
                0x10000000                __ROMBase = (ORIGIN (ROM) & 0xf0000000)
                0x107fffff                __ROMLimit = ((ORIGIN (ROM) + LENGTH (ROM)) - 0x1)
                [!provide]                PROVIDE (__stack = __StackTop)
                0x00000001                ASSERT ((__StackLimit >= __HeapLimit), region RAM overflowed with stack)
OUTPUT(C:\Projects\ultra700\bin\payload.elf elf32-littlearm)
LOAD linker stubs

.ARM.attributes
                0x00000000       0x28
 .ARM.attributes
                0x00000000       0x1b CMakeFiles/payload.elf.dir/src/startup_MT6261x.S.obj
 .ARM.attributes
                0x0000001b       0x2c CMakeFiles/payload.elf.dir/src/System/DZ09.c.obj
 .ARM.attributes
                0x00000047       0x32 CMakeFiles/payload.elf.dir/src/Lib/appheader.c.obj
 .ARM.attributes
                0x00000079       0x1b CMakeFiles/payload.elf.dir/src/System/asmutils.s.obj
 .ARM.attributes
                0x00000094       0x1b CMakeFiles/payload.elf.dir/src/System/exchandlers.s.obj
 .ARM.attributes
                0x000000af       0x2c CMakeFiles/payload.elf.dir/src/System/crc.c.obj
 .ARM.attributes
                0x000000db       0x2c CMakeFiles/payload.elf.dir/src/System/debug.c.obj
 .ARM.attributes
                0x00000107       0x2c CMakeFiles/payload.elf.dir/src/System/dlist.c.obj
 .ARM.attributes
                0x00000133       0x2c CMakeFiles/payload.elf.dir/src/System/evmngr.c.obj
 .ARM.attributes
                0x0000015f       0x2c CMakeFiles/payload.elf.dir/src/System/fscache.c.obj
 .ARM.attributes
                0x0000018b       0x2c CMakeFiles/payload.elf.dir/src/System/init.c.obj
 .ARM.attributes
                0x000001b7       0x2c CMakeFiles/payload.elf.dir/src/System/lrtimer.c.obj
 .ARM.attributes
                0x000001e3       0x2c CMakeFiles/payload.elf.dir/src/System/memory.c.obj
 .ARM.attributes
                0x0000020f       0x2c CMakeFiles/payload.elf.dir/src/System/pmngr.c.obj
 .ARM.attributes
                0x0000023b       0x32 CMakeFiles/payload.elf.dir/src/System/resource.c.obj
 .ARM.attributes
                0x0000026d       0x2c CMakeFiles/payload.elf.dir/src/System/ringbuf.c.obj
 .ARM.attributes
                0x00000299       0x2c CMakeFiles/payload.elf.dir/src/System/sf.c.obj
 .ARM.attributes
                0x000002c5       0x2c CMakeFiles/payload.elf.dir/src/System/tlsf.c.obj
 .ARM.attributes
                0x000002f1       0x2c CMakeFiles/payload.elf.dir/src/System/utils.c.obj
 .ARM.attributes
                0x0000031d       0x2c CMakeFiles/payload.elf.dir/src/Lib/MT6261/Drivers/auxadc.c.obj
 .ARM.attributes
                0x00000349       0x2c CMakeFiles/payload.elf.dir/src/Lib/MT6261/Drivers/afe.c.obj
 .ARM.attributes
                0x00000375       0x2c CMakeFiles/payload.elf.dir/src/Lib/MT6261/Drivers/emi.c.obj
 .ARM.attributes
                0x000003a1       0x2c CMakeFiles/payload.elf.dir/src/Lib/MT6261/Drivers/gpio.c.obj
 .ARM.attributes
                0x000003cd       0x2c CMakeFiles/payload.elf.dir/src/Lib/MT6261/Drivers/gpt.c.obj
 .ARM.attributes
                0x000003f9       0x2c CMakeFiles/payload.elf.dir/src/Lib/MT6261/Drivers/lcdif.c.obj
 .ARM.attributes
                0x00000425       0x2c CMakeFiles/payload.elf.dir/src/Lib/MT6261/Drivers/msdc.c.obj
 .ARM.attributes
                0x00000451       0x2c CMakeFiles/payload.elf.dir/src/Lib/MT6261/Drivers/nvic.c.obj
 .ARM.attributes
                0x0000047d       0x2c CMakeFiles/payload.elf.dir/src/Lib/MT6261/Drivers/pctl.c.obj
 .ARM.attributes
                0x000004a9       0x2c CMakeFiles/payload.elf.dir/src/Lib/MT6261/Drivers/pll.c.obj
 .ARM.attributes
                0x000004d5       0x2c CMakeFiles/payload.elf.dir/src/Lib/MT6261/Drivers/pmu.c.obj
 .ARM.attributes
                0x00000501       0x2c CMakeFiles/payload.elf.dir/src/Lib/MT6261/Drivers/pwm.c.obj
 .ARM.attributes
                0x0000052d       0x2c CMakeFiles/payload.elf.dir/src/Lib/MT6261/Drivers/rgu.c.obj
 .ARM.attributes
                0x00000559       0x2c CMakeFiles/payload.elf.dir/src/Lib/MT6261/Drivers/rtc.c.obj
 .ARM.attributes
                0x00000585       0x2c CMakeFiles/payload.elf.dir/src/Lib/MT6261/Drivers/sfi.c.obj
 .ARM.attributes
                0x000005b1       0x2c CMakeFiles/payload.elf.dir/src/Lib/MT6261/Drivers/spi.c.obj
 .ARM.attributes
                0x000005dd       0x2c CMakeFiles/payload.elf.dir/src/Lib/MT6261/Drivers/tcmcache.c.obj
 .ARM.attributes
                0x00000609       0x2c CMakeFiles/payload.elf.dir/src/Lib/MT6261/Drivers/usart.c.obj
 .ARM.attributes
                0x00000635       0x2c CMakeFiles/payload.elf.dir/src/Lib/MT6261/Drivers/usb.c.obj
 .ARM.attributes
                0x00000661       0x2c CMakeFiles/payload.elf.dir/src/Lib/MT6261/Drivers/ustimer.c.obj
 .ARM.attributes
                0x0000068d       0x2c CMakeFiles/payload.elf.dir/src/Lib/USB/usb9.c.obj
 .ARM.attributes
                0x000006b9       0x2c CMakeFiles/payload.elf.dir/src/GUI/gdi.c.obj
 .ARM.attributes
                0x000006e5       0x2c CMakeFiles/payload.elf.dir/src/GUI/gdifont.c.obj
 .ARM.attributes
                0x00000711       0x2c CMakeFiles/payload.elf.dir/src/GUI/gdiutils.c.obj
 .ARM.attributes
                0x0000073d       0x2c CMakeFiles/payload.elf.dir/src/GUI/gui.c.obj
 .ARM.attributes
                0x00000769       0x2c CMakeFiles/payload.elf.dir/src/GUI/guibutton.c.obj
 .ARM.attributes
                0x00000795       0x2c CMakeFiles/payload.elf.dir/src/GUI/guilabel.c.obj
 .ARM.attributes
                0x000007c1       0x2c CMakeFiles/payload.elf.dir/src/GUI/guiobject.c.obj
 .ARM.attributes
                0x000007ed       0x2c CMakeFiles/payload.elf.dir/src/GUI/guiwin.c.obj
 .ARM.attributes
                0x00000819       0x2c CMakeFiles/payload.elf.dir/src/Application/appinit.c.obj
 .ARM.attributes
                0x00000845       0x2c CMakeFiles/payload.elf.dir/src/Application/audio_note.c.obj
 .ARM.attributes
                0x00000871       0x2c CMakeFiles/payload.elf.dir/src/Application/Drivers/backlight.c.obj
 .ARM.attributes
                0x0000089d       0x2c CMakeFiles/payload.elf.dir/src/Application/Drivers/delay.c.obj
 .ARM.attributes
                0x000008c9       0x32 CMakeFiles/payload.elf.dir/src/Application/Drivers/dflib.c.obj
 .ARM.attributes
                0x000008fb       0x2c CMakeFiles/payload.elf.dir/src/Application/Drivers/ft6236.c.obj
 .ARM.attributes
                0x00000927       0x2c CMakeFiles/payload.elf.dir/src/Application/Drivers/ili9341.c.obj
 .ARM.attributes
                0x00000953       0x2c CMakeFiles/payload.elf.dir/src/Application/Drivers/simple_keypad.c.obj
 .ARM.attributes
                0x0000097f       0x2c CMakeFiles/payload.elf.dir/src/Application/Drivers/single_led.c.obj
 .ARM.attributes
                0x000009ab       0x2c CMakeFiles/payload.elf.dir/src/Application/Drivers/sdcard.c.obj
 .ARM.attributes
                0x000009d7       0x2c CMakeFiles/payload.elf.dir/src/Application/pcm_player.c.obj
 .ARM.attributes
                0x00000a03       0x2c CMakeFiles/payload.elf.dir/src/Application/Drivers/usbdevice_cdc.c.obj
 .ARM.attributes
                0x00000a2f       0x2a c:/projects/ultra700/gcc/bin/../lib/gcc/arm-none-eabi/9.3.1/../../../../arm-none-eabi/lib\libc.a(lib_a-fflush.o)
 .ARM.attributes
                0x00000a59       0x2a c:/projects/ultra700/gcc/bin/../lib/gcc/arm-none-eabi/9.3.1/../../../../arm-none-eabi/lib\libc.a(lib_a-findfp.o)
 .ARM.attributes
                0x00000a83       0x2a c:/projects/ultra700/gcc/bin/../lib/gcc/arm-none-eabi/9.3.1/../../../../arm-none-eabi/lib\libc.a(lib_a-freer.o)
 .ARM.attributes
                0x00000aad       0x2a c:/projects/ultra700/gcc/bin/../lib/gcc/arm-none-eabi/9.3.1/../../../../arm-none-eabi/lib\libc.a(lib_a-fwalk.o)
 .ARM.attributes
                0x00000ad7       0x30 c:/projects/ultra700/gcc/bin/../lib/gcc/arm-none-eabi/9.3.1/../../../../arm-none-eabi/lib\libc.a(lib_a-impure.o)
 .ARM.attributes
                0x00000b07       0x2a c:/projects/ultra700/gcc/bin/../lib/gcc/arm-none-eabi/9.3.1/../../../../arm-none-eabi/lib\libc.a(lib_a-lock.o)
 .ARM.attributes
                0x00000b31       0x2a c:/projects/ultra700/gcc/bin/../lib/gcc/arm-none-eabi/9.3.1/../../../../arm-none-eabi/lib\libc.a(lib_a-mallocr.o)
 .ARM.attributes
                0x00000b5b       0x2a c:/projects/ultra700/gcc/bin/../lib/gcc/arm-none-eabi/9.3.1/../../../../arm-none-eabi/lib\libc.a(lib_a-memcmp.o)
 .ARM.attributes
                0x00000b85       0x2a c:/projects/ultra700/gcc/bin/../lib/gcc/arm-none-eabi/9.3.1/../../../../arm-none-eabi/lib\libc.a(lib_a-memcpy-stub.o)
 .ARM.attributes
                0x00000baf       0x2a c:/projects/ultra700/gcc/bin/../lib/gcc/arm-none-eabi/9.3.1/../../../../arm-none-eabi/lib\libc.a(lib_a-memset.o)
 .ARM.attributes
                0x00000bd9       0x2a c:/projects/ultra700/gcc/bin/../lib/gcc/arm-none-eabi/9.3.1/../../../../arm-none-eabi/lib\libc.a(lib_a-mlock.o)
 .ARM.attributes
                0x00000c03       0x2a c:/projects/ultra700/gcc/bin/../lib/gcc/arm-none-eabi/9.3.1/../../../../arm-none-eabi/lib\libc.a(lib_a-printf.o)
 .ARM.attributes
                0x00000c2d       0x2a c:/projects/ultra700/gcc/bin/../lib/gcc/arm-none-eabi/9.3.1/../../../../arm-none-eabi/lib\libc.a(lib_a-sbrkr.o)
 .ARM.attributes
                0x00000c57       0x2a c:/projects/ultra700/gcc/bin/../lib/gcc/arm-none-eabi/9.3.1/../../../../arm-none-eabi/lib\libc.a(lib_a-stdio.o)
 .ARM.attributes
                0x00000c81       0x2a c:/projects/ultra700/gcc/bin/../lib/gcc/arm-none-eabi/9.3.1/../../../../arm-none-eabi/lib\libc.a(lib_a-strlen-stub.o)
 .ARM.attributes
                0x00000cab       0x2a c:/projects/ultra700/gcc/bin/../lib/gcc/arm-none-eabi/9.3.1/../../../../arm-none-eabi/lib\libc.a(lib_a-vfprintf.o)
 .ARM.attributes
                0x00000cd5       0x2a c:/projects/ultra700/gcc/bin/../lib/gcc/arm-none-eabi/9.3.1/../../../../arm-none-eabi/lib\libc.a(lib_a-vsnprintf.o)
 .ARM.attributes
                0x00000cff       0x2a c:/projects/ultra700/gcc/bin/../lib/gcc/arm-none-eabi/9.3.1/../../../../arm-none-eabi/lib\libc.a(lib_a-writer.o)
 .ARM.attributes
                0x00000d29       0x2a c:/projects/ultra700/gcc/bin/../lib/gcc/arm-none-eabi/9.3.1/../../../../arm-none-eabi/lib\libc.a(lib_a-wsetup.o)
 .ARM.attributes
                0x00000d53       0x2a c:/projects/ultra700/gcc/bin/../lib/gcc/arm-none-eabi/9.3.1/../../../../arm-none-eabi/lib\libc.a(lib_a-closer.o)
 .ARM.attributes
                0x00000d7d       0x2a c:/projects/ultra700/gcc/bin/../lib/gcc/arm-none-eabi/9.3.1/../../../../arm-none-eabi/lib\libc.a(lib_a-dtoa.o)
 .ARM.attributes
                0x00000da7       0x2a c:/projects/ultra700/gcc/bin/../lib/gcc/arm-none-eabi/9.3.1/../../../../arm-none-eabi/lib\libc.a(lib_a-fclose.o)
 .ARM.attributes
                0x00000dd1       0x2a c:/projects/ultra700/gcc/bin/../lib/gcc/arm-none-eabi/9.3.1/../../../../arm-none-eabi/lib\libc.a(lib_a-localeconv.o)
 .ARM.attributes
                0x00000dfb       0x2a c:/projects/ultra700/gcc/bin/../lib/gcc/arm-none-eabi/9.3.1/../../../../arm-none-eabi/lib\libc.a(lib_a-lseekr.o)
 .ARM.attributes
                0x00000e25       0x2a c:/projects/ultra700/gcc/bin/../lib/gcc/arm-none-eabi/9.3.1/../../../../arm-none-eabi/lib\libc.a(lib_a-makebuf.o)
 .ARM.attributes
                0x00000e4f       0x2a c:/projects/ultra700/gcc/bin/../lib/gcc/arm-none-eabi/9.3.1/../../../../arm-none-eabi/lib\libc.a(lib_a-memchr-stub.o)
 .ARM.attributes
                0x00000e79       0x2a c:/projects/ultra700/gcc/bin/../lib/gcc/arm-none-eabi/9.3.1/../../../../arm-none-eabi/lib\libc.a(lib_a-mprec.o)
 .ARM.attributes
                0x00000ea3       0x2a c:/projects/ultra700/gcc/bin/../lib/gcc/arm-none-eabi/9.3.1/../../../../arm-none-eabi/lib\libc.a(lib_a-readr.o)
 .ARM.attributes
                0x00000ecd       0x2a c:/projects/ultra700/gcc/bin/../lib/gcc/arm-none-eabi/9.3.1/../../../../arm-none-eabi/lib\libc.a(lib_a-reent.o)
 .ARM.attributes
                0x00000ef7       0x2a c:/projects/ultra700/gcc/bin/../lib/gcc/arm-none-eabi/9.3.1/../../../../arm-none-eabi/lib\libc.a(lib_a-s_frexp.o)
 .ARM.attributes
                0x00000f21       0x2a c:/projects/ultra700/gcc/bin/../lib/gcc/arm-none-eabi/9.3.1/../../../../arm-none-eabi/lib\libc.a(lib_a-strncpy.o)
 .ARM.attributes
                0x00000f4b       0x2a c:/projects/ultra700/gcc/bin/../lib/gcc/arm-none-eabi/9.3.1/../../../../arm-none-eabi/lib\libc.a(lib_a-svfprintf.o)
 .ARM.attributes
                0x00000f75       0x2a c:/projects/ultra700/gcc/bin/../lib/gcc/arm-none-eabi/9.3.1/../../../../arm-none-eabi/lib\libc.a(lib_a-vfiprintf.o)
 .ARM.attributes
                0x00000f9f       0x2a c:/projects/ultra700/gcc/bin/../lib/gcc/arm-none-eabi/9.3.1/../../../../arm-none-eabi/lib\libc.a(lib_a-assert.o)
 .ARM.attributes
                0x00000fc9       0x2a c:/projects/ultra700/gcc/bin/../lib/gcc/arm-none-eabi/9.3.1/../../../../arm-none-eabi/lib\libc.a(lib_a-callocr.o)
 .ARM.attributes
                0x00000ff3       0x2a c:/projects/ultra700/gcc/bin/../lib/gcc/arm-none-eabi/9.3.1/../../../../arm-none-eabi/lib\libc.a(lib_a-fiprintf.o)
 .ARM.attributes
                0x0000101d       0x2a c:/projects/ultra700/gcc/bin/../lib/gcc/arm-none-eabi/9.3.1/../../../../arm-none-eabi/lib\libc.a(lib_a-fputwc.o)
 .ARM.attributes
                0x00001047       0x2a c:/projects/ultra700/gcc/bin/../lib/gcc/arm-none-eabi/9.3.1/../../../../arm-none-eabi/lib\libc.a(lib_a-fstatr.o)
 .ARM.attributes
                0x00001071       0x2a c:/projects/ultra700/gcc/bin/../lib/gcc/arm-none-eabi/9.3.1/../../../../arm-none-eabi/lib\libc.a(lib_a-fvwrite.o)
 .ARM.attributes
                0x0000109b       0x2a c:/projects/ultra700/gcc/bin/../lib/gcc/arm-none-eabi/9.3.1/../../../../arm-none-eabi/lib\libc.a(lib_a-isattyr.o)
 .ARM.attributes
                0x000010c5       0x2a c:/projects/ultra700/gcc/bin/../lib/gcc/arm-none-eabi/9.3.1/../../../../arm-none-eabi/lib\libc.a(lib_a-locale.o)
 .ARM.attributes
                0x000010ef       0x2a c:/projects/ultra700/gcc/bin/../lib/gcc/arm-none-eabi/9.3.1/../../../../arm-none-eabi/lib\libc.a(lib_a-mbtowc_r.o)
 .ARM.attributes
                0x00001119       0x2a c:/projects/ultra700/gcc/bin/../lib/gcc/arm-none-eabi/9.3.1/../../../../arm-none-eabi/lib\libc.a(lib_a-memmove.o)
 .ARM.attributes
                0x00001143       0x2a c:/projects/ultra700/gcc/bin/../lib/gcc/arm-none-eabi/9.3.1/../../../../arm-none-eabi/lib\libc.a(lib_a-reallocr.o)
 .ARM.attributes
                0x0000116d       0x1a c:/projects/ultra700/gcc/bin/../lib/gcc/arm-none-eabi/9.3.1/../../../../arm-none-eabi/lib\libc.a(lib_a-strcmp.o)
 .ARM.attributes
                0x00001187       0x2a c:/projects/ultra700/gcc/bin/../lib/gcc/arm-none-eabi/9.3.1/../../../../arm-none-eabi/lib\libc.a(lib_a-svfiprintf.o)
 .ARM.attributes
                0x000011b1       0x2a c:/projects/ultra700/gcc/bin/../lib/gcc/arm-none-eabi/9.3.1/../../../../arm-none-eabi/lib\libc.a(lib_a-wbuf.o)
 .ARM.attributes
                0x000011db       0x2a c:/projects/ultra700/gcc/bin/../lib/gcc/arm-none-eabi/9.3.1/../../../../arm-none-eabi/lib\libc.a(lib_a-wcrtomb.o)
 .ARM.attributes
                0x00001205       0x2a c:/projects/ultra700/gcc/bin/../lib/gcc/arm-none-eabi/9.3.1/../../../../arm-none-eabi/lib\libc.a(lib_a-wctomb_r.o)
 .ARM.attributes
                0x0000122f       0x2a c:/projects/ultra700/gcc/bin/../lib/gcc/arm-none-eabi/9.3.1/../../../../arm-none-eabi/lib\libc.a(lib_a-abort.o)
 .ARM.attributes
                0x00001259       0x30 c:/projects/ultra700/gcc/bin/../lib/gcc/arm-none-eabi/9.3.1/../../../../arm-none-eabi/lib\libc.a(lib_a-ctype_.o)
 .ARM.attributes
                0x00001289       0x2a c:/projects/ultra700/gcc/bin/../lib/gcc/arm-none-eabi/9.3.1/../../../../arm-none-eabi/lib\libc.a(lib_a-signal.o)
 .ARM.attributes
                0x000012b3       0x2a c:/projects/ultra700/gcc/bin/../lib/gcc/arm-none-eabi/9.3.1/../../../../arm-none-eabi/lib\libc.a(lib_a-signalr.o)
 .ARM.attributes
                0x000012dd       0x1c c:/projects/ultra700/gcc/bin/../lib/gcc/arm-none-eabi/9.3.1\libgcc.a(_arm_muldf3.o)
 .ARM.attributes
                0x000012f9       0x1c c:/projects/ultra700/gcc/bin/../lib/gcc/arm-none-eabi/9.3.1\libgcc.a(_udivsi3.o)
 .ARM.attributes
                0x00001315       0x1c c:/projects/ultra700/gcc/bin/../lib/gcc/arm-none-eabi/9.3.1\libgcc.a(_divsi3.o)
 .ARM.attributes
                0x00001331       0x1c c:/projects/ultra700/gcc/bin/../lib/gcc/arm-none-eabi/9.3.1\libgcc.a(_dvmd_tls.o)
 .ARM.attributes
                0x0000134d       0x1c c:/projects/ultra700/gcc/bin/../lib/gcc/arm-none-eabi/9.3.1\libgcc.a(_arm_addsubdf3.o)
 .ARM.attributes
                0x00001369       0x1c c:/projects/ultra700/gcc/bin/../lib/gcc/arm-none-eabi/9.3.1\libgcc.a(_arm_muldivdf3.o)
 .ARM.attributes
                0x00001385       0x1c c:/projects/ultra700/gcc/bin/../lib/gcc/arm-none-eabi/9.3.1\libgcc.a(_arm_cmpdf2.o)
 .ARM.attributes
                0x000013a1       0x1c c:/projects/ultra700/gcc/bin/../lib/gcc/arm-none-eabi/9.3.1\libgcc.a(_arm_unorddf2.o)
 .ARM.attributes
                0x000013bd       0x1c c:/projects/ultra700/gcc/bin/../lib/gcc/arm-none-eabi/9.3.1\libgcc.a(_arm_fixdfsi.o)
 .ARM.attributes
                0x000013d9       0x1c c:/projects/ultra700/gcc/bin/../lib/gcc/arm-none-eabi/9.3.1\libgcc.a(_aeabi_uldivmod.o)
 .ARM.attributes
                0x000013f5       0x2a c:/projects/ultra700/gcc/bin/../lib/gcc/arm-none-eabi/9.3.1\libgcc.a(_udivmoddi4.o)
 .ARM.attributes
                0x0000141f       0x1c c:/projects/ultra700/gcc/bin/../lib/gcc/arm-none-eabi/9.3.1\libgcc.a(_clzdi2.o)
 .ARM.attributes
                0x0000143b       0x1c c:/projects/ultra700/gcc/bin/../lib/gcc/arm-none-eabi/9.3.1\libgcc.a(_clzsi2.o)
 .ARM.attributes
                0x00001457       0x2a c:/projects/ultra700/gcc/bin/../lib/gcc/arm-none-eabi/9.3.1/../../../../arm-none-eabi/lib\libnosys.a(close.o)
 .ARM.attributes
                0x00001481       0x2a c:/projects/ultra700/gcc/bin/../lib/gcc/arm-none-eabi/9.3.1/../../../../arm-none-eabi/lib\libnosys.a(fstat.o)
 .ARM.attributes
                0x000014ab       0x2a c:/projects/ultra700/gcc/bin/../lib/gcc/arm-none-eabi/9.3.1/../../../../arm-none-eabi/lib\libnosys.a(getpid.o)
 .ARM.attributes
                0x000014d5       0x2a c:/projects/ultra700/gcc/bin/../lib/gcc/arm-none-eabi/9.3.1/../../../../arm-none-eabi/lib\libnosys.a(isatty.o)
 .ARM.attributes
                0x000014ff       0x2a c:/projects/ultra700/gcc/bin/../lib/gcc/arm-none-eabi/9.3.1/../../../../arm-none-eabi/lib\libnosys.a(kill.o)
 .ARM.attributes
                0x00001529       0x2a c:/projects/ultra700/gcc/bin/../lib/gcc/arm-none-eabi/9.3.1/../../../../arm-none-eabi/lib\libnosys.a(lseek.o)
 .ARM.attributes
                0x00001553       0x2a c:/projects/ultra700/gcc/bin/../lib/gcc/arm-none-eabi/9.3.1/../../../../arm-none-eabi/lib\libnosys.a(read.o)
 .ARM.attributes
                0x0000157d       0x2a c:/projects/ultra700/gcc/bin/../lib/gcc/arm-none-eabi/9.3.1/../../../../arm-none-eabi/lib\libnosys.a(sbrk.o)
 .ARM.attributes
                0x000015a7       0x2a c:/projects/ultra700/gcc/bin/../lib/gcc/arm-none-eabi/9.3.1/../../../../arm-none-eabi/lib\libnosys.a(_exit.o)
 .ARM.attributes
                0x000015d1       0x2d C:/Projects/ultra700/src/GUI/Resource/fontlib.a(courier20h.o)

.comment        0x00000000       0xba
 .comment       0x00000000       0x4c CMakeFiles/payload.elf.dir/src/System/DZ09.c.obj
                                 0x4d (size before relaxing)
 .comment       0x0000004c       0x4d CMakeFiles/payload.elf.dir/src/Lib/appheader.c.obj
 .comment       0x0000004c       0x4d CMakeFiles/payload.elf.dir/src/System/crc.c.obj
 .comment       0x0000004c       0x4d CMakeFiles/payload.elf.dir/src/System/debug.c.obj
 .comment       0x0000004c       0x4d CMakeFiles/payload.elf.dir/src/System/dlist.c.obj
 .comment       0x0000004c       0x4d CMakeFiles/payload.elf.dir/src/System/evmngr.c.obj
 .comment       0x0000004c       0x4d CMakeFiles/payload.elf.dir/src/System/fscache.c.obj
 .comment       0x0000004c       0x4d CMakeFiles/payload.elf.dir/src/System/init.c.obj
 .comment       0x0000004c       0x4d CMakeFiles/payload.elf.dir/src/System/lrtimer.c.obj
 .comment       0x0000004c       0x4d CMakeFiles/payload.elf.dir/src/System/memory.c.obj
 .comment       0x0000004c       0x4d CMakeFiles/payload.elf.dir/src/System/pmngr.c.obj
 .comment       0x0000004c       0x4d CMakeFiles/payload.elf.dir/src/System/resource.c.obj
 .comment       0x0000004c       0x4d CMakeFiles/payload.elf.dir/src/System/ringbuf.c.obj
 .comment       0x0000004c       0x4d CMakeFiles/payload.elf.dir/src/System/sf.c.obj
 .comment       0x0000004c       0x4d CMakeFiles/payload.elf.dir/src/System/tlsf.c.obj
 .comment       0x0000004c       0x4d CMakeFiles/payload.elf.dir/src/System/utils.c.obj
 .comment       0x0000004c       0x4d CMakeFiles/payload.elf.dir/src/Lib/MT6261/Drivers/auxadc.c.obj
 .comment       0x0000004c       0x4d CMakeFiles/payload.elf.dir/src/Lib/MT6261/Drivers/afe.c.obj
 .comment       0x0000004c       0x4d CMakeFiles/payload.elf.dir/src/Lib/MT6261/Drivers/emi.c.obj
 .comment       0x0000004c       0x4d CMakeFiles/payload.elf.dir/src/Lib/MT6261/Drivers/gpio.c.obj
 .comment       0x0000004c       0x4d CMakeFiles/payload.elf.dir/src/Lib/MT6261/Drivers/gpt.c.obj
 .comment       0x0000004c       0x4d CMakeFiles/payload.elf.dir/src/Lib/MT6261/Drivers/lcdif.c.obj
 .comment       0x0000004c       0x4d CMakeFiles/payload.elf.dir/src/Lib/MT6261/Drivers/msdc.c.obj
 .comment       0x0000004c       0x4d CMakeFiles/payload.elf.dir/src/Lib/MT6261/Drivers/nvic.c.obj
 .comment       0x0000004c       0x4d CMakeFiles/payload.elf.dir/src/Lib/MT6261/Drivers/pctl.c.obj
 .comment       0x0000004c       0x4d CMakeFiles/payload.elf.dir/src/Lib/MT6261/Drivers/pll.c.obj
 .comment       0x0000004c       0x4d CMakeFiles/payload.elf.dir/src/Lib/MT6261/Drivers/pmu.c.obj
 .comment       0x0000004c       0x4d CMakeFiles/payload.elf.dir/src/Lib/MT6261/Drivers/pwm.c.obj
 .comment       0x0000004c       0x4d CMakeFiles/payload.elf.dir/src/Lib/MT6261/Drivers/rgu.c.obj
 .comment       0x0000004c       0x4d CMakeFiles/payload.elf.dir/src/Lib/MT6261/Drivers/rtc.c.obj
 .comment       0x0000004c       0x4d CMakeFiles/payload.elf.dir/src/Lib/MT6261/Drivers/sfi.c.obj
 .comment       0x0000004c       0x4d CMakeFiles/payload.elf.dir/src/Lib/MT6261/Drivers/spi.c.obj
 .comment       0x0000004c       0x4d CMakeFiles/payload.elf.dir/src/Lib/MT6261/Drivers/tcmcache.c.obj
 .comment       0x0000004c       0x4d CMakeFiles/payload.elf.dir/src/Lib/MT6261/Drivers/usart.c.obj
 .comment       0x0000004c       0x4d CMakeFiles/payload.elf.dir/src/Lib/MT6261/Drivers/usb.c.obj
 .comment       0x0000004c       0x4d CMakeFiles/payload.elf.dir/src/Lib/MT6261/Drivers/ustimer.c.obj
 .comment       0x0000004c       0x4d CMakeFiles/payload.elf.dir/src/Lib/USB/usb9.c.obj
 .comment       0x0000004c       0x4d CMakeFiles/payload.elf.dir/src/GUI/gdi.c.obj
 .comment       0x0000004c       0x4d CMakeFiles/payload.elf.dir/src/GUI/gdifont.c.obj
 .comment       0x0000004c       0x4d CMakeFiles/payload.elf.dir/src/GUI/gdiutils.c.obj
 .comment       0x0000004c       0x4d CMakeFiles/payload.elf.dir/src/GUI/gui.c.obj
 .comment       0x0000004c       0x4d CMakeFiles/payload.elf.dir/src/GUI/guibutton.c.obj
 .comment       0x0000004c       0x4d CMakeFiles/payload.elf.dir/src/GUI/guilabel.c.obj
 .comment       0x0000004c       0x4d CMakeFiles/payload.elf.dir/src/GUI/guiobject.c.obj
 .comment       0x0000004c       0x4d CMakeFiles/payload.elf.dir/src/GUI/guiwin.c.obj
 .comment       0x0000004c       0x4d CMakeFiles/payload.elf.dir/src/Application/appinit.c.obj
 .comment       0x0000004c       0x4d CMakeFiles/payload.elf.dir/src/Application/audio_note.c.obj
 .comment       0x0000004c       0x4d CMakeFiles/payload.elf.dir/src/Application/Drivers/backlight.c.obj
 .comment       0x0000004c       0x4d CMakeFiles/payload.elf.dir/src/Application/Drivers/delay.c.obj
 .comment       0x0000004c       0x4d CMakeFiles/payload.elf.dir/src/Application/Drivers/dflib.c.obj
 .comment       0x0000004c       0x4d CMakeFiles/payload.elf.dir/src/Application/Drivers/ft6236.c.obj
 .comment       0x0000004c       0x4d CMakeFiles/payload.elf.dir/src/Application/Drivers/ili9341.c.obj
 .comment       0x0000004c       0x4d CMakeFiles/payload.elf.dir/src/Application/Drivers/simple_keypad.c.obj
 .comment       0x0000004c       0x4d CMakeFiles/payload.elf.dir/src/Application/Drivers/single_led.c.obj
 .comment       0x0000004c       0x4d CMakeFiles/payload.elf.dir/src/Application/Drivers/sdcard.c.obj
 .comment       0x0000004c       0x4d CMakeFiles/payload.elf.dir/src/Application/pcm_player.c.obj
 .comment       0x0000004c       0x4d CMakeFiles/payload.elf.dir/src/Application/Drivers/usbdevice_cdc.c.obj
 .comment       0x0000004c       0x6e C:/Projects/ultra700/src/GUI/Resource/fontlib.a(courier20h.o)
                                 0x6f (size before relaxing)

.debug_frame    0x00000000     0x1b28
 .debug_frame   0x00000000       0xa0 c:/projects/ultra700/gcc/bin/../lib/gcc/arm-none-eabi/9.3.1/../../../../arm-none-eabi/lib\libc.a(lib_a-fflush.o)
 .debug_frame   0x000000a0      0x1b8 c:/projects/ultra700/gcc/bin/../lib/gcc/arm-none-eabi/9.3.1/../../../../arm-none-eabi/lib\libc.a(lib_a-findfp.o)
 .debug_frame   0x00000258       0x74 c:/projects/ultra700/gcc/bin/../lib/gcc/arm-none-eabi/9.3.1/../../../../arm-none-eabi/lib\libc.a(lib_a-freer.o)
 .debug_frame   0x000002cc       0x68 c:/projects/ultra700/gcc/bin/../lib/gcc/arm-none-eabi/9.3.1/../../../../arm-none-eabi/lib\libc.a(lib_a-fwalk.o)
 .debug_frame   0x00000334       0xb0 c:/projects/ultra700/gcc/bin/../lib/gcc/arm-none-eabi/9.3.1/../../../../arm-none-eabi/lib\libc.a(lib_a-lock.o)
 .debug_frame   0x000003e4       0x74 c:/projects/ultra700/gcc/bin/../lib/gcc/arm-none-eabi/9.3.1/../../../../arm-none-eabi/lib\libc.a(lib_a-mallocr.o)
 .debug_frame   0x00000458       0x38 c:/projects/ultra700/gcc/bin/../lib/gcc/arm-none-eabi/9.3.1/../../../../arm-none-eabi/lib\libc.a(lib_a-memcmp.o)
 .debug_frame   0x00000490       0x3c c:/projects/ultra700/gcc/bin/../lib/gcc/arm-none-eabi/9.3.1/../../../../arm-none-eabi/lib\libc.a(lib_a-memcpy-stub.o)
 .debug_frame   0x000004cc       0x50 c:/projects/ultra700/gcc/bin/../lib/gcc/arm-none-eabi/9.3.1/../../../../arm-none-eabi/lib\libc.a(lib_a-memset.o)
 .debug_frame   0x0000051c       0x48 c:/projects/ultra700/gcc/bin/../lib/gcc/arm-none-eabi/9.3.1/../../../../arm-none-eabi/lib\libc.a(lib_a-mlock.o)
 .debug_frame   0x00000564       0x74 c:/projects/ultra700/gcc/bin/../lib/gcc/arm-none-eabi/9.3.1/../../../../arm-none-eabi/lib\libc.a(lib_a-printf.o)
 .debug_frame   0x000005d8       0x3c c:/projects/ultra700/gcc/bin/../lib/gcc/arm-none-eabi/9.3.1/../../../../arm-none-eabi/lib\libc.a(lib_a-sbrkr.o)
 .debug_frame   0x00000614       0xa0 c:/projects/ultra700/gcc/bin/../lib/gcc/arm-none-eabi/9.3.1/../../../../arm-none-eabi/lib\libc.a(lib_a-stdio.o)
 .debug_frame   0x000006b4       0x20 c:/projects/ultra700/gcc/bin/../lib/gcc/arm-none-eabi/9.3.1/../../../../arm-none-eabi/lib\libc.a(lib_a-strlen-stub.o)
 .debug_frame   0x000006d4       0xb4 c:/projects/ultra700/gcc/bin/../lib/gcc/arm-none-eabi/9.3.1/../../../../arm-none-eabi/lib\libc.a(lib_a-vfprintf.o)
 .debug_frame   0x00000788       0x64 c:/projects/ultra700/gcc/bin/../lib/gcc/arm-none-eabi/9.3.1/../../../../arm-none-eabi/lib\libc.a(lib_a-vsnprintf.o)
 .debug_frame   0x000007ec       0x34 c:/projects/ultra700/gcc/bin/../lib/gcc/arm-none-eabi/9.3.1/../../../../arm-none-eabi/lib\libc.a(lib_a-writer.o)
 .debug_frame   0x00000820       0x40 c:/projects/ultra700/gcc/bin/../lib/gcc/arm-none-eabi/9.3.1/../../../../arm-none-eabi/lib\libc.a(lib_a-wsetup.o)
 .debug_frame   0x00000860       0x34 c:/projects/ultra700/gcc/bin/../lib/gcc/arm-none-eabi/9.3.1/../../../../arm-none-eabi/lib\libc.a(lib_a-closer.o)
 .debug_frame   0x00000894       0xc0 c:/projects/ultra700/gcc/bin/../lib/gcc/arm-none-eabi/9.3.1/../../../../arm-none-eabi/lib\libc.a(lib_a-dtoa.o)
 .debug_frame   0x00000954       0x5c c:/projects/ultra700/gcc/bin/../lib/gcc/arm-none-eabi/9.3.1/../../../../arm-none-eabi/lib\libc.a(lib_a-fclose.o)
 .debug_frame   0x000009b0       0x40 c:/projects/ultra700/gcc/bin/../lib/gcc/arm-none-eabi/9.3.1/../../../../arm-none-eabi/lib\libc.a(lib_a-localeconv.o)
 .debug_frame   0x000009f0       0x34 c:/projects/ultra700/gcc/bin/../lib/gcc/arm-none-eabi/9.3.1/../../../../arm-none-eabi/lib\libc.a(lib_a-lseekr.o)
 .debug_frame   0x00000a24       0x8c c:/projects/ultra700/gcc/bin/../lib/gcc/arm-none-eabi/9.3.1/../../../../arm-none-eabi/lib\libc.a(lib_a-makebuf.o)
 .debug_frame   0x00000ab0       0x4c c:/projects/ultra700/gcc/bin/../lib/gcc/arm-none-eabi/9.3.1/../../../../arm-none-eabi/lib\libc.a(lib_a-memchr-stub.o)
 .debug_frame   0x00000afc      0x2f0 c:/projects/ultra700/gcc/bin/../lib/gcc/arm-none-eabi/9.3.1/../../../../arm-none-eabi/lib\libc.a(lib_a-mprec.o)
 .debug_frame   0x00000dec       0x34 c:/projects/ultra700/gcc/bin/../lib/gcc/arm-none-eabi/9.3.1/../../../../arm-none-eabi/lib\libc.a(lib_a-readr.o)
 .debug_frame   0x00000e20       0x64 c:/projects/ultra700/gcc/bin/../lib/gcc/arm-none-eabi/9.3.1/../../../../arm-none-eabi/lib\libc.a(lib_a-reent.o)
 .debug_frame   0x00000e84       0x34 c:/projects/ultra700/gcc/bin/../lib/gcc/arm-none-eabi/9.3.1/../../../../arm-none-eabi/lib\libc.a(lib_a-s_frexp.o)
 .debug_frame   0x00000eb8       0x40 c:/projects/ultra700/gcc/bin/../lib/gcc/arm-none-eabi/9.3.1/../../../../arm-none-eabi/lib\libc.a(lib_a-strncpy.o)
 .debug_frame   0x00000ef8       0x50 c:/projects/ultra700/gcc/bin/../lib/gcc/arm-none-eabi/9.3.1/../../../../arm-none-eabi/lib\libc.a(lib_a-svfprintf.o)
 .debug_frame   0x00000f48       0xf8 c:/projects/ultra700/gcc/bin/../lib/gcc/arm-none-eabi/9.3.1/../../../../arm-none-eabi/lib\libc.a(lib_a-vfiprintf.o)
 .debug_frame   0x00001040       0x40 c:/projects/ultra700/gcc/bin/../lib/gcc/arm-none-eabi/9.3.1/../../../../arm-none-eabi/lib\libc.a(lib_a-assert.o)
 .debug_frame   0x00001080       0x34 c:/projects/ultra700/gcc/bin/../lib/gcc/arm-none-eabi/9.3.1/../../../../arm-none-eabi/lib\libc.a(lib_a-callocr.o)
 .debug_frame   0x000010b4       0x6c c:/projects/ultra700/gcc/bin/../lib/gcc/arm-none-eabi/9.3.1/../../../../arm-none-eabi/lib\libc.a(lib_a-fiprintf.o)
 .debug_frame   0x00001120       0xb4 c:/projects/ultra700/gcc/bin/../lib/gcc/arm-none-eabi/9.3.1/../../../../arm-none-eabi/lib\libc.a(lib_a-fputwc.o)
 .debug_frame   0x000011d4       0x34 c:/projects/ultra700/gcc/bin/../lib/gcc/arm-none-eabi/9.3.1/../../../../arm-none-eabi/lib\libc.a(lib_a-fstatr.o)
 .debug_frame   0x00001208       0x70 c:/projects/ultra700/gcc/bin/../lib/gcc/arm-none-eabi/9.3.1/../../../../arm-none-eabi/lib\libc.a(lib_a-fvwrite.o)
 .debug_frame   0x00001278       0x34 c:/projects/ultra700/gcc/bin/../lib/gcc/arm-none-eabi/9.3.1/../../../../arm-none-eabi/lib\libc.a(lib_a-isattyr.o)
 .debug_frame   0x000012ac       0x50 c:/projects/ultra700/gcc/bin/../lib/gcc/arm-none-eabi/9.3.1/../../../../arm-none-eabi/lib\libc.a(lib_a-locale.o)
 .debug_frame   0x000012fc       0x48 c:/projects/ultra700/gcc/bin/../lib/gcc/arm-none-eabi/9.3.1/../../../../arm-none-eabi/lib\libc.a(lib_a-mbtowc_r.o)
 .debug_frame   0x00001344       0x34 c:/projects/ultra700/gcc/bin/../lib/gcc/arm-none-eabi/9.3.1/../../../../arm-none-eabi/lib\libc.a(lib_a-memmove.o)
 .debug_frame   0x00001378       0x70 c:/projects/ultra700/gcc/bin/../lib/gcc/arm-none-eabi/9.3.1/../../../../arm-none-eabi/lib\libc.a(lib_a-reallocr.o)
 .debug_frame   0x000013e8       0x40 c:/projects/ultra700/gcc/bin/../lib/gcc/arm-none-eabi/9.3.1/../../../../arm-none-eabi/lib\libc.a(lib_a-strcmp.o)
 .debug_frame   0x00001428       0xa0 c:/projects/ultra700/gcc/bin/../lib/gcc/arm-none-eabi/9.3.1/../../../../arm-none-eabi/lib\libc.a(lib_a-svfiprintf.o)
 .debug_frame   0x000014c8       0x4c c:/projects/ultra700/gcc/bin/../lib/gcc/arm-none-eabi/9.3.1/../../../../arm-none-eabi/lib\libc.a(lib_a-wbuf.o)
 .debug_frame   0x00001514       0x60 c:/projects/ultra700/gcc/bin/../lib/gcc/arm-none-eabi/9.3.1/../../../../arm-none-eabi/lib\libc.a(lib_a-wcrtomb.o)
 .debug_frame   0x00001574       0x3c c:/projects/ultra700/gcc/bin/../lib/gcc/arm-none-eabi/9.3.1/../../../../arm-none-eabi/lib\libc.a(lib_a-wctomb_r.o)
 .debug_frame   0x000015b0       0x28 c:/projects/ultra700/gcc/bin/../lib/gcc/arm-none-eabi/9.3.1/../../../../arm-none-eabi/lib\libc.a(lib_a-abort.o)
 .debug_frame   0x000015d8      0x100 c:/projects/ultra700/gcc/bin/../lib/gcc/arm-none-eabi/9.3.1/../../../../arm-none-eabi/lib\libc.a(lib_a-signal.o)
 .debug_frame   0x000016d8       0x50 c:/projects/ultra700/gcc/bin/../lib/gcc/arm-none-eabi/9.3.1/../../../../arm-none-eabi/lib\libc.a(lib_a-signalr.o)
 .debug_frame   0x00001728       0x30 c:/projects/ultra700/gcc/bin/../lib/gcc/arm-none-eabi/9.3.1\libgcc.a(_arm_muldf3.o)
 .debug_frame   0x00001758       0x20 c:/projects/ultra700/gcc/bin/../lib/gcc/arm-none-eabi/9.3.1\libgcc.a(_udivsi3.o)
 .debug_frame   0x00001778       0x20 c:/projects/ultra700/gcc/bin/../lib/gcc/arm-none-eabi/9.3.1\libgcc.a(_divsi3.o)
 .debug_frame   0x00001798       0xac c:/projects/ultra700/gcc/bin/../lib/gcc/arm-none-eabi/9.3.1\libgcc.a(_arm_addsubdf3.o)
 .debug_frame   0x00001844       0x50 c:/projects/ultra700/gcc/bin/../lib/gcc/arm-none-eabi/9.3.1\libgcc.a(_arm_muldivdf3.o)
 .debug_frame   0x00001894       0xc4 c:/projects/ultra700/gcc/bin/../lib/gcc/arm-none-eabi/9.3.1\libgcc.a(_arm_cmpdf2.o)
 .debug_frame   0x00001958       0x20 c:/projects/ultra700/gcc/bin/../lib/gcc/arm-none-eabi/9.3.1\libgcc.a(_arm_unorddf2.o)
 .debug_frame   0x00001978       0x24 c:/projects/ultra700/gcc/bin/../lib/gcc/arm-none-eabi/9.3.1\libgcc.a(_arm_fixdfsi.o)
 .debug_frame   0x0000199c       0x2c c:/projects/ultra700/gcc/bin/../lib/gcc/arm-none-eabi/9.3.1\libgcc.a(_aeabi_uldivmod.o)
 .debug_frame   0x000019c8       0x40 c:/projects/ultra700/gcc/bin/../lib/gcc/arm-none-eabi/9.3.1\libgcc.a(_udivmoddi4.o)
 .debug_frame   0x00001a08       0x20 c:/projects/ultra700/gcc/bin/../lib/gcc/arm-none-eabi/9.3.1/../../../../arm-none-eabi/lib\libnosys.a(close.o)
 .debug_frame   0x00001a28       0x20 c:/projects/ultra700/gcc/bin/../lib/gcc/arm-none-eabi/9.3.1/../../../../arm-none-eabi/lib\libnosys.a(fstat.o)
 .debug_frame   0x00001a48       0x20 c:/projects/ultra700/gcc/bin/../lib/gcc/arm-none-eabi/9.3.1/../../../../arm-none-eabi/lib\libnosys.a(getpid.o)
 .debug_frame   0x00001a68       0x20 c:/projects/ultra700/gcc/bin/../lib/gcc/arm-none-eabi/9.3.1/../../../../arm-none-eabi/lib\libnosys.a(isatty.o)
 .debug_frame   0x00001a88       0x20 c:/projects/ultra700/gcc/bin/../lib/gcc/arm-none-eabi/9.3.1/../../../../arm-none-eabi/lib\libnosys.a(kill.o)
 .debug_frame   0x00001aa8       0x20 c:/projects/ultra700/gcc/bin/../lib/gcc/arm-none-eabi/9.3.1/../../../../arm-none-eabi/lib\libnosys.a(lseek.o)
 .debug_frame   0x00001ac8       0x20 c:/projects/ultra700/gcc/bin/../lib/gcc/arm-none-eabi/9.3.1/../../../../arm-none-eabi/lib\libnosys.a(read.o)
 .debug_frame   0x00001ae8       0x20 c:/projects/ultra700/gcc/bin/../lib/gcc/arm-none-eabi/9.3.1/../../../../arm-none-eabi/lib\libnosys.a(sbrk.o)
 .debug_frame   0x00001b08       0x20 c:/projects/ultra700/gcc/bin/../lib/gcc/arm-none-eabi/9.3.1/../../../../arm-none-eabi/lib\libnosys.a(_exit.o)

.stab           0x00000000       0xb4
 .stab          0x00000000       0x24 c:/projects/ultra700/gcc/bin/../lib/gcc/arm-none-eabi/9.3.1/../../../../arm-none-eabi/lib\libnosys.a(close.o)
 .stab          0x00000024       0x18 c:/projects/ultra700/gcc/bin/../lib/gcc/arm-none-eabi/9.3.1/../../../../arm-none-eabi/lib\libnosys.a(fstat.o)
                                 0x24 (size before relaxing)
 .stab          0x0000003c       0x18 c:/projects/ultra700/gcc/bin/../lib/gcc/arm-none-eabi/9.3.1/../../../../arm-none-eabi/lib\libnosys.a(getpid.o)
                                 0x24 (size before relaxing)
 .stab          0x00000054       0x18 c:/projects/ultra700/gcc/bin/../lib/gcc/arm-none-eabi/9.3.1/../../../../arm-none-eabi/lib\libnosys.a(isatty.o)
                                 0x24 (size before relaxing)
 .stab          0x0000006c       0x18 c:/projects/ultra700/gcc/bin/../lib/gcc/arm-none-eabi/9.3.1/../../../../arm-none-eabi/lib\libnosys.a(kill.o)
                                 0x24 (size before relaxing)
 .stab          0x00000084       0x18 c:/projects/ultra700/gcc/bin/../lib/gcc/arm-none-eabi/9.3.1/../../../../arm-none-eabi/lib\libnosys.a(lseek.o)
                                 0x24 (size before relaxing)
 .stab          0x0000009c       0x18 c:/projects/ultra700/gcc/bin/../lib/gcc/arm-none-eabi/9.3.1/../../../../arm-none-eabi/lib\libnosys.a(read.o)
                                 0x24 (size before relaxing)

.stabstr        0x00000000      0x183
 .stabstr       0x00000000      0x183 c:/projects/ultra700/gcc/bin/../lib/gcc/arm-none-eabi/9.3.1/../../../../arm-none-eabi/lib\libnosys.a(close.o)

.debug_info     0x00000000      0xb10
 .debug_info    0x00000000      0xb10 C:/Projects/ultra700/src/GUI/Resource/fontlib.a(courier20h.o)

.debug_abbrev   0x00000000       0xc5
 .debug_abbrev  0x00000000       0xc5 C:/Projects/ultra700/src/GUI/Resource/fontlib.a(courier20h.o)

.debug_aranges  0x00000000       0x18
 .debug_aranges
                0x00000000       0x18 C:/Projects/ultra700/src/GUI/Resource/fontlib.a(courier20h.o)

.debug_line     0x00000000       0x41
 .debug_line    0x00000000       0x41 C:/Projects/ultra700/src/GUI/Resource/fontlib.a(courier20h.o)

.debug_str      0x00000000      0xaf9
 .debug_str     0x00000000      0xaf9 C:/Projects/ultra700/src/GUI/Resource/fontlib.a(courier20h.o)
                                0xaff (size before relaxing)
